
FontSamplesWire.elf:     file format elf32-avr

Sections:
Idx Name          Size      VMA       LMA       File off  Algn
  0 .data         00000200  00800100  0000792a  000079be  2**0
                  CONTENTS, ALLOC, LOAD, DATA
  1 .text         0000792a  00000000  00000000  00000094  2**1
                  CONTENTS, ALLOC, LOAD, READONLY, CODE
  2 .bss          000000d8  00800300  00800300  00007bbe  2**0
                  ALLOC
  3 .comment      00000030  00000000  00000000  00007bbe  2**0
                  CONTENTS, READONLY
  4 .note.gnu.avr.deviceinfo 00000040  00000000  00000000  00007bf0  2**2
                  CONTENTS, READONLY
  5 .debug_aranges 00000448  00000000  00000000  00007c30  2**0
                  CONTENTS, READONLY, DEBUGGING
  6 .debug_info   0002521a  00000000  00000000  00008078  2**0
                  CONTENTS, READONLY, DEBUGGING
  7 .debug_abbrev 00001d3a  00000000  00000000  0002d292  2**0
                  CONTENTS, READONLY, DEBUGGING
  8 .debug_line   00002ba6  00000000  00000000  0002efcc  2**0
                  CONTENTS, READONLY, DEBUGGING
  9 .debug_frame  00000c64  00000000  00000000  00031b74  2**2
                  CONTENTS, READONLY, DEBUGGING
 10 .debug_str    00002b2a  00000000  00000000  000327d8  2**0
                  CONTENTS, READONLY, DEBUGGING
 11 .debug_loc    00005084  00000000  00000000  00035302  2**0
                  CONTENTS, READONLY, DEBUGGING
 12 .debug_ranges 000004c0  00000000  00000000  0003a386  2**0
                  CONTENTS, READONLY, DEBUGGING

Disassembly of section .text:

00000000 <__vectors>:
       0:	0c 94 01 35 	jmp	0x6a02	; 0x6a02 <__ctors_end>
       4:	0c 94 29 35 	jmp	0x6a52	; 0x6a52 <__bad_interrupt>
       8:	0c 94 29 35 	jmp	0x6a52	; 0x6a52 <__bad_interrupt>
       c:	0c 94 29 35 	jmp	0x6a52	; 0x6a52 <__bad_interrupt>
      10:	0c 94 29 35 	jmp	0x6a52	; 0x6a52 <__bad_interrupt>
      14:	0c 94 29 35 	jmp	0x6a52	; 0x6a52 <__bad_interrupt>
      18:	0c 94 29 35 	jmp	0x6a52	; 0x6a52 <__bad_interrupt>
      1c:	0c 94 29 35 	jmp	0x6a52	; 0x6a52 <__bad_interrupt>
      20:	0c 94 29 35 	jmp	0x6a52	; 0x6a52 <__bad_interrupt>
      24:	0c 94 29 35 	jmp	0x6a52	; 0x6a52 <__bad_interrupt>
      28:	0c 94 29 35 	jmp	0x6a52	; 0x6a52 <__bad_interrupt>
      2c:	0c 94 29 35 	jmp	0x6a52	; 0x6a52 <__bad_interrupt>
      30:	0c 94 29 35 	jmp	0x6a52	; 0x6a52 <__bad_interrupt>
      34:	0c 94 29 35 	jmp	0x6a52	; 0x6a52 <__bad_interrupt>
      38:	0c 94 29 35 	jmp	0x6a52	; 0x6a52 <__bad_interrupt>
      3c:	0c 94 29 35 	jmp	0x6a52	; 0x6a52 <__bad_interrupt>
      40:	0c 94 47 36 	jmp	0x6c8e	; 0x6c8e <__vector_16>
      44:	0c 94 29 35 	jmp	0x6a52	; 0x6a52 <__bad_interrupt>
      48:	0c 94 29 35 	jmp	0x6a52	; 0x6a52 <__bad_interrupt>
      4c:	0c 94 29 35 	jmp	0x6a52	; 0x6a52 <__bad_interrupt>
      50:	0c 94 29 35 	jmp	0x6a52	; 0x6a52 <__bad_interrupt>
      54:	0c 94 29 35 	jmp	0x6a52	; 0x6a52 <__bad_interrupt>
      58:	0c 94 29 35 	jmp	0x6a52	; 0x6a52 <__bad_interrupt>
      5c:	0c 94 29 35 	jmp	0x6a52	; 0x6a52 <__bad_interrupt>
      60:	0c 94 60 3b 	jmp	0x76c0	; 0x76c0 <__vector_24>
      64:	0c 94 29 35 	jmp	0x6a52	; 0x6a52 <__bad_interrupt>

00000068 <__trampolines_end>:
      68:	39 31       	cpi	r19, 0x19	; 25
      6a:	0a 0f       	add	r16, r26
      6c:	20 dc       	rcall	.-1984   	; 0xfffff8ae <__eeprom_end+0xff7ef8ae>
      6e:	02 02       	muls	r16, r18
      70:	05 05       	cpc	r16, r5
      72:	05 08       	sbc	r0, r5
      74:	07 02       	muls	r16, r23
      76:	03 02       	muls	r16, r19
      78:	03 06       	cpc	r0, r19
      7a:	02 03       	mulsu	r16, r18
      7c:	02 03       	mulsu	r16, r18
      7e:	05 03       	mulsu	r16, r21
      80:	05 05       	cpc	r16, r5
      82:	05 05       	cpc	r16, r5
      84:	05 05       	cpc	r16, r5
      86:	05 05       	cpc	r16, r5
      88:	02 02       	muls	r16, r18
      8a:	06 06       	cpc	r0, r22
      8c:	06 05       	cpc	r16, r6
      8e:	0a 06       	cpc	r0, r26
      90:	06 06       	cpc	r0, r22
      92:	06 05       	cpc	r16, r6
      94:	05 06       	cpc	r0, r21
      96:	06 02       	muls	r16, r22
      98:	04 06       	cpc	r0, r20
      9a:	05 07       	cpc	r16, r21
      9c:	06 07       	cpc	r16, r22
      9e:	06 08       	sbc	r0, r6
      a0:	07 06       	cpc	r0, r23
      a2:	06 06       	cpc	r0, r22
      a4:	06 08       	sbc	r0, r6
      a6:	07 06       	cpc	r0, r23
      a8:	05 03       	mulsu	r16, r21
      aa:	03 02       	muls	r16, r19
      ac:	05 05       	cpc	r16, r5
      ae:	02 04       	cpc	r0, r2
      b0:	05 04       	cpc	r0, r5
      b2:	05 04       	cpc	r0, r5
      b4:	03 05       	cpc	r16, r3
      b6:	05 02       	muls	r16, r21
      b8:	02 05       	cpc	r16, r2
      ba:	02 08       	sbc	r0, r2
      bc:	05 05       	cpc	r16, r5
      be:	05 05       	cpc	r16, r5
      c0:	04 04       	cpc	r0, r4
      c2:	03 05       	cpc	r16, r3
      c4:	05 07       	cpc	r16, r21
      c6:	05 05       	cpc	r16, r5
      c8:	04 03       	mulsu	r16, r20
      ca:	02 04       	cpc	r0, r2
      cc:	06 02       	muls	r16, r22
      ce:	02 02       	muls	r16, r18
      d0:	02 02       	muls	r16, r18
      d2:	02 02       	muls	r16, r18
      d4:	02 02       	muls	r16, r18
      d6:	02 02       	muls	r16, r18
      d8:	02 02       	muls	r16, r18
      da:	02 02       	muls	r16, r18
      dc:	02 02       	muls	r16, r18
      de:	02 02       	muls	r16, r18
      e0:	02 02       	muls	r16, r18
      e2:	02 02       	muls	r16, r18
      e4:	02 02       	muls	r16, r18
      e6:	02 02       	muls	r16, r18
      e8:	02 02       	muls	r16, r18
      ea:	02 02       	muls	r16, r18
      ec:	02 02       	muls	r16, r18
      ee:	00 02       	muls	r16, r16
      f0:	05 06       	cpc	r0, r21
      f2:	05 06       	cpc	r0, r21
      f4:	02 04       	cpc	r0, r2
      f6:	03 07       	cpc	r16, r19
      f8:	03 05       	cpc	r16, r3
      fa:	05 03       	mulsu	r16, r21
      fc:	07 06       	cpc	r0, r23
      fe:	04 06       	cpc	r0, r20
     100:	03 03       	mulsu	r16, r19
     102:	02 05       	cpc	r16, r2
     104:	05 01       	movw	r0, r10
     106:	03 02       	muls	r16, r19
     108:	03 05       	cpc	r16, r3
     10a:	08 08       	sbc	r0, r8
     10c:	08 05       	cpc	r16, r8
     10e:	06 06       	cpc	r0, r22
     110:	06 06       	cpc	r0, r22
     112:	06 06       	cpc	r0, r22
     114:	0a 06       	cpc	r0, r26
     116:	05 05       	cpc	r16, r5
     118:	06 05       	cpc	r16, r6
     11a:	02 02       	muls	r16, r18
     11c:	03 02       	muls	r16, r19
     11e:	06 06       	cpc	r0, r22
     120:	07 07       	cpc	r16, r23
     122:	07 07       	cpc	r16, r23
     124:	07 05       	cpc	r16, r7
     126:	07 06       	cpc	r0, r23
     128:	06 06       	cpc	r0, r22
     12a:	06 06       	cpc	r0, r22
     12c:	06 06       	cpc	r0, r22
     12e:	04 04       	cpc	r0, r4
     130:	05 04       	cpc	r0, r5
     132:	04 04       	cpc	r0, r4
     134:	08 04       	cpc	r0, r8
     136:	04 04       	cpc	r0, r4
     138:	05 04       	cpc	r0, r5
     13a:	02 02       	muls	r16, r18
     13c:	03 02       	muls	r16, r19
     13e:	05 05       	cpc	r16, r5
     140:	05 05       	cpc	r16, r5
     142:	05 05       	cpc	r16, r5
     144:	05 06       	cpc	r0, r21
     146:	05 05       	cpc	r16, r5
     148:	05 05       	cpc	r16, r5
     14a:	00 00       	nop
     14c:	00 00       	nop
     14e:	f8 f8       	.word	0xf8f8	; ????
     150:	16 16       	cp	r1, r22
     152:	38 38       	cpi	r19, 0x88	; 136
     154:	00 38       	cpi	r16, 0x80	; 128
     156:	38 00       	.word	0x0038	; ????
     158:	00 00       	nop
     15a:	00 00       	nop
     15c:	20 e0       	ldi	r18, 0x00	; 0
     15e:	38 e0       	ldi	r19, 0x08	; 8
     160:	38 1c       	adc	r3, r8
     162:	06 1c       	adc	r0, r6
     164:	06 04       	cpc	r0, r6
     166:	70 c8       	rjmp	.-3872   	; 0xfffff248 <__eeprom_end+0xff7ef248>
     168:	fc 88       	ldd	r15, Y+20	; 0x14
     16a:	10 0c       	add	r1, r0
     16c:	18 3e       	cpi	r17, 0xE8	; 232
     16e:	12 0e       	add	r1, r18
     170:	78 48       	sbci	r23, 0x88	; 136
     172:	78 80       	ld	r7, Y
     174:	60 18       	sub	r6, r0
     176:	00 00       	nop
     178:	00 00       	nop
     17a:	18 06       	cpc	r1, r24
     17c:	00 1e       	adc	r0, r16
     17e:	12 1e       	adc	r1, r18
     180:	00 b0       	in	r0, 0x00	; 0
     182:	f8 c8       	rjmp	.-3600   	; 0xfffff374 <__eeprom_end+0xff7ef374>
     184:	78 30       	cpi	r23, 0x08	; 8
     186:	00 0e       	add	r0, r16
     188:	1e 12       	cpse	r1, r30
     18a:	12 1e       	adc	r1, r18
     18c:	1c 0a       	sbc	r1, r28
     18e:	38 38       	cpi	r19, 0x88	; 136
     190:	00 00       	nop
     192:	c0 f0       	brcs	.+48     	; 0x1c4 <__trampolines_end+0x15c>
     194:	18 0e       	add	r1, r24
     196:	3e 60       	ori	r19, 0x0E	; 14
     198:	f0 c0       	rjmp	.+480    	; 0x37a <__trampolines_end+0x312>
     19a:	3e 0e       	add	r3, r30
     19c:	50 38       	cpi	r21, 0x80	; 128
     19e:	50 00       	.word	0x0050	; ????
     1a0:	00 00       	nop
     1a2:	80 80       	ld	r8, Z
     1a4:	e0 e0       	ldi	r30, 0x00	; 0
     1a6:	80 80       	ld	r8, Z
     1a8:	02 02       	muls	r16, r18
     1aa:	0e 0e       	add	r0, r30
     1ac:	02 02       	muls	r16, r18
     1ae:	00 00       	nop
     1b0:	50 30       	cpi	r21, 0x00	; 0
     1b2:	00 00       	nop
     1b4:	00 04       	cpc	r0, r0
     1b6:	04 04       	cpc	r0, r4
     1b8:	00 00       	nop
     1ba:	10 10       	cpse	r1, r0
     1bc:	80 f8       	bld	r8, 0
     1be:	f8 1e       	adc	r15, r24
     1c0:	1e 00       	.word	0x001e	; ????
     1c2:	f0 f8       	bld	r15, 0
     1c4:	08 f8       	.word	0xf808	; ????
     1c6:	f0 0e       	add	r15, r16
     1c8:	1e 10       	cpse	r1, r14
     1ca:	1e 0e       	add	r1, r30
     1cc:	60 f0       	brcs	.+24     	; 0x1e6 <__trampolines_end+0x17e>
     1ce:	f8 00       	.word	0x00f8	; ????
     1d0:	1e 1e       	adc	r1, r30
     1d2:	10 18       	sub	r1, r0
     1d4:	88 f8       	.word	0xf888	; ????
     1d6:	f0 18       	sub	r15, r0
     1d8:	1e 16       	cp	r1, r30
     1da:	12 10       	cpse	r1, r2
     1dc:	10 18       	sub	r1, r0
     1de:	88 f8       	.word	0xf888	; ????
     1e0:	70 08       	sbc	r7, r0
     1e2:	18 10       	cpse	r1, r8
     1e4:	1e 0e       	add	r1, r30
     1e6:	80 60       	ori	r24, 0x00	; 0
     1e8:	f8 f8       	.word	0xf8f8	; ????
     1ea:	00 06       	cpc	r0, r16
     1ec:	04 1e       	adc	r0, r20
     1ee:	1e 04       	cpc	r1, r14
     1f0:	c0 78       	andi	r28, 0x80	; 128
     1f2:	48 c8       	rjmp	.-3952   	; 0xfffff284 <__eeprom_end+0xff7ef284>
     1f4:	88 08       	sbc	r8, r8
     1f6:	18 10       	cpse	r1, r8
     1f8:	1e 0e       	add	r1, r30
     1fa:	e0 f8       	bld	r14, 0
     1fc:	48 d8       	rcall	.-3952   	; 0xfffff28e <__eeprom_end+0xff7ef28e>
     1fe:	90 0e       	add	r9, r16
     200:	1e 10       	cpse	r1, r14
     202:	1e 0e       	add	r1, r30
     204:	08 08       	sbc	r0, r8
     206:	e8 f8       	.word	0xf8e8	; ????
     208:	18 00       	.word	0x0018	; ????
     20a:	1e 1e       	adc	r1, r30
     20c:	00 00       	nop
     20e:	70 78       	andi	r23, 0x80	; 128
     210:	88 78       	andi	r24, 0x88	; 136
     212:	70 0e       	add	r7, r16
     214:	1e 10       	cpse	r1, r14
     216:	1e 0e       	add	r1, r30
     218:	f0 f8       	bld	r15, 0
     21a:	08 f8       	.word	0xf808	; ????
     21c:	f0 08       	sbc	r15, r0
     21e:	1a 12       	cpse	r1, r26
     220:	1e 06       	cpc	r1, r30
     222:	40 40       	sbci	r20, 0x00	; 0
     224:	10 10       	cpse	r1, r0
     226:	40 40       	sbci	r20, 0x00	; 0
     228:	50 30       	cpi	r21, 0x00	; 0
     22a:	80 80       	ld	r8, Z
     22c:	c0 c0       	rjmp	.+384    	; 0x3ae <__trampolines_end+0x346>
     22e:	c0 60       	ori	r28, 0x00	; 0
     230:	06 06       	cpc	r0, r22
     232:	0c 0c       	add	r0, r12
     234:	0c 18       	sub	r0, r12
     236:	c0 c0       	rjmp	.+384    	; 0x3b8 <__trampolines_end+0x350>
     238:	c0 c0       	rjmp	.+384    	; 0x3ba <__trampolines_end+0x352>
     23a:	c0 c0       	rjmp	.+384    	; 0x3bc <__trampolines_end+0x354>
     23c:	0c 0c       	add	r0, r12
     23e:	0c 0c       	add	r0, r12
     240:	0c 0c       	add	r0, r12
     242:	60 c0       	rjmp	.+192    	; 0x304 <__trampolines_end+0x29c>
     244:	c0 c0       	rjmp	.+384    	; 0x3c6 <__trampolines_end+0x35e>
     246:	80 80       	ld	r8, Z
     248:	18 0c       	add	r1, r8
     24a:	0c 0c       	add	r0, r12
     24c:	06 06       	cpc	r0, r22
     24e:	10 18       	sub	r1, r0
     250:	88 f8       	.word	0xf888	; ????
     252:	f0 00       	.word	0x00f0	; ????
     254:	00 16       	cp	r0, r16
     256:	16 00       	.word	0x0016	; ????
     258:	c0 20       	and	r12, r0
     25a:	10 88       	ldd	r1, Z+16	; 0x10
     25c:	48 48       	sbci	r20, 0x88	; 136
     25e:	48 d8       	rcall	.-3952   	; 0xfffff2f0 <__eeprom_end+0xff7ef2f0>
     260:	30 e0       	ldi	r19, 0x00	; 0
     262:	0e 30       	cpi	r16, 0x0E	; 14
     264:	2e 50       	subi	r18, 0x0E	; 14
     266:	50 50       	subi	r21, 0x00	; 0
     268:	5e 50       	subi	r21, 0x0E	; 14
     26a:	28 16       	cp	r2, r24
     26c:	00 e0       	ldi	r16, 0x00	; 0
     26e:	38 38       	cpi	r19, 0x88	; 136
     270:	e0 00       	.word	0x00e0	; ????
     272:	1c 1e       	adc	r1, r28
     274:	02 02       	muls	r16, r18
     276:	1e 1c       	adc	r1, r14
     278:	f8 f8       	.word	0xf8f8	; ????
     27a:	88 88       	ldd	r8, Y+16	; 0x10
     27c:	f8 70       	andi	r31, 0x08	; 8
     27e:	1e 1e       	adc	r1, r30
     280:	10 10       	cpse	r1, r0
     282:	1e 0e       	add	r1, r30
     284:	f0 f8       	bld	r15, 0
     286:	08 08       	sbc	r0, r8
     288:	18 10       	cpse	r1, r8
     28a:	0e 1e       	adc	r0, r30
     28c:	10 10       	cpse	r1, r0
     28e:	1c 0c       	add	r1, r12
     290:	f8 f8       	.word	0xf8f8	; ????
     292:	08 08       	sbc	r0, r8
     294:	f8 f0       	brcs	.+62     	; 0x2d4 <__trampolines_end+0x26c>
     296:	1e 1e       	adc	r1, r30
     298:	10 10       	cpse	r1, r0
     29a:	1e 0e       	add	r1, r30
     29c:	f8 f8       	.word	0xf8f8	; ????
     29e:	88 88       	ldd	r8, Y+16	; 0x10
     2a0:	88 1e       	adc	r8, r24
     2a2:	1e 10       	cpse	r1, r14
     2a4:	10 10       	cpse	r1, r0
     2a6:	f8 f8       	.word	0xf8f8	; ????
     2a8:	88 88       	ldd	r8, Y+16	; 0x10
     2aa:	88 1e       	adc	r8, r24
     2ac:	1e 00       	.word	0x001e	; ????
     2ae:	00 00       	nop
     2b0:	f0 f8       	bld	r15, 0
     2b2:	08 88       	ldd	r0, Y+16	; 0x10
     2b4:	98 90       	.word	0x9098	; ????
     2b6:	0e 1e       	adc	r0, r30
     2b8:	10 10       	cpse	r1, r0
     2ba:	1e 0e       	add	r1, r30
     2bc:	f8 f8       	.word	0xf8f8	; ????
     2be:	80 80       	ld	r8, Z
     2c0:	f8 f8       	.word	0xf8f8	; ????
     2c2:	1e 1e       	adc	r1, r30
     2c4:	00 00       	nop
     2c6:	1e 1e       	adc	r1, r30
     2c8:	f8 f8       	.word	0xf8f8	; ????
     2ca:	1e 1e       	adc	r1, r30
     2cc:	00 00       	nop
     2ce:	f8 f8       	.word	0xf8f8	; ????
     2d0:	0c 10       	cpse	r0, r12
     2d2:	1e 0e       	add	r1, r30
     2d4:	f8 f8       	.word	0xf8f8	; ????
     2d6:	c0 f0       	brcs	.+48     	; 0x308 <__trampolines_end+0x2a0>
     2d8:	b8 08       	sbc	r11, r8
     2da:	1e 1e       	adc	r1, r30
     2dc:	00 02       	muls	r16, r16
     2de:	1e 1c       	adc	r1, r14
     2e0:	f8 f8       	.word	0xf8f8	; ????
     2e2:	00 00       	nop
     2e4:	00 1e       	adc	r0, r16
     2e6:	1e 10       	cpse	r1, r14
     2e8:	10 10       	cpse	r1, r0
     2ea:	f8 f8       	.word	0xf8f8	; ????
     2ec:	c0 00       	.word	0x00c0	; ????
     2ee:	c0 f8       	bld	r12, 0
     2f0:	f8 1e       	adc	r15, r24
     2f2:	1e 02       	muls	r17, r30
     2f4:	1e 00       	.word	0x001e	; ????
     2f6:	1e 1e       	adc	r1, r30
     2f8:	f8 f8       	.word	0xf8f8	; ????
     2fa:	f0 80       	ld	r15, Z
     2fc:	f8 f8       	.word	0xf8f8	; ????
     2fe:	1e 1e       	adc	r1, r30
     300:	00 0e       	add	r0, r16
     302:	1e 1e       	adc	r1, r30
     304:	e0 f0       	brcs	.+56     	; 0x33e <__trampolines_end+0x2d6>
     306:	18 08       	sbc	r1, r8
     308:	18 f0       	brcs	.+6      	; 0x310 <__trampolines_end+0x2a8>
     30a:	e0 06       	cpc	r14, r16
     30c:	0e 18       	sub	r0, r14
     30e:	10 18       	sub	r1, r0
     310:	0e 06       	cpc	r0, r30
     312:	f8 f8       	.word	0xf8f8	; ????
     314:	08 08       	sbc	r0, r8
     316:	f8 f0       	brcs	.+62     	; 0x356 <__trampolines_end+0x2ee>
     318:	1e 1e       	adc	r1, r30
     31a:	02 02       	muls	r16, r18
     31c:	02 00       	.word	0x0002	; ????
     31e:	e0 f0       	brcs	.+56     	; 0x358 <__trampolines_end+0x2f0>
     320:	18 08       	sbc	r1, r8
     322:	18 f0       	brcs	.+6      	; 0x32a <__trampolines_end+0x2c2>
     324:	e0 00       	.word	0x00e0	; ????
     326:	06 0e       	add	r0, r22
     328:	18 14       	cp	r1, r8
     32a:	18 1e       	adc	r1, r24
     32c:	3e 30       	cpi	r19, 0x0E	; 14
     32e:	f8 f8       	.word	0xf8f8	; ????
     330:	88 88       	ldd	r8, Y+16	; 0x10
     332:	f8 70       	andi	r31, 0x08	; 8
     334:	00 1e       	adc	r0, r16
     336:	1e 00       	.word	0x001e	; ????
     338:	02 0e       	add	r0, r18
     33a:	1c 10       	cpse	r1, r12
     33c:	70 f8       	bld	r7, 0
     33e:	c8 88       	ldd	r12, Y+16	; 0x10
     340:	b8 30       	cpi	r27, 0x08	; 8
     342:	0c 1c       	adc	r0, r12
     344:	10 12       	cpse	r1, r16
     346:	1e 0e       	add	r1, r30
     348:	08 08       	sbc	r0, r8
     34a:	f8 f8       	.word	0xf8f8	; ????
     34c:	08 08       	sbc	r0, r8
     34e:	00 00       	nop
     350:	1e 1e       	adc	r1, r30
     352:	00 00       	nop
     354:	f8 f8       	.word	0xf8f8	; ????
     356:	00 00       	nop
     358:	f8 f8       	.word	0xf8f8	; ????
     35a:	0e 1e       	adc	r0, r30
     35c:	10 10       	cpse	r1, r0
     35e:	1e 0e       	add	r1, r30
     360:	38 f8       	.word	0xf838	; ????
     362:	80 80       	ld	r8, Z
     364:	f8 38       	cpi	r31, 0x88	; 136
     366:	00 06       	cpc	r0, r16
     368:	1e 1e       	adc	r1, r30
     36a:	06 00       	.word	0x0006	; ????
     36c:	f8 f8       	.word	0xf8f8	; ????
     36e:	00 f8       	bld	r0, 0
     370:	f8 00       	.word	0x00f8	; ????
     372:	f8 f8       	.word	0xf8f8	; ????
     374:	06 1e       	adc	r0, r22
     376:	1c 02       	muls	r17, r28
     378:	06 18       	sub	r0, r6
     37a:	1e 06       	cpc	r1, r30
     37c:	08 38       	cpi	r16, 0x88	; 136
     37e:	f0 c0       	rjmp	.+480    	; 0x560 <__LOCK_REGION_LENGTH__+0x160>
     380:	f0 38       	cpi	r31, 0x80	; 128
     382:	08 10       	cpse	r0, r8
     384:	1c 0e       	add	r1, r28
     386:	06 0e       	add	r0, r22
     388:	1c 10       	cpse	r1, r12
     38a:	18 78       	andi	r17, 0x88	; 136
     38c:	e0 e0       	ldi	r30, 0x00	; 0
     38e:	78 18       	sub	r7, r8
     390:	00 00       	nop
     392:	1e 1e       	adc	r1, r30
     394:	00 00       	nop
     396:	08 88       	ldd	r0, Y+16	; 0x10
     398:	e8 78       	andi	r30, 0x88	; 136
     39a:	18 18       	sub	r1, r8
     39c:	1e 16       	cp	r1, r30
     39e:	10 10       	cpse	r1, r0
     3a0:	f8 f8       	.word	0xf8f8	; ????
     3a2:	08 7e       	andi	r16, 0xE8	; 232
     3a4:	7e 40       	sbci	r23, 0x0E	; 14
     3a6:	f8 f8       	.word	0xf8f8	; ????
     3a8:	80 00       	.word	0x0080	; ????
     3aa:	1e 1e       	adc	r1, r30
     3ac:	f8 f8       	.word	0xf8f8	; ????
     3ae:	7e 7e       	andi	r23, 0xEE	; 238
     3b0:	e0 f8       	bld	r14, 0
     3b2:	18 f8       	.word	0xf818	; ????
     3b4:	e0 00       	.word	0x00e0	; ????
	...
     3be:	00 40       	sbci	r16, 0x00	; 0
     3c0:	40 40       	sbci	r20, 0x00	; 0
     3c2:	40 40       	sbci	r20, 0x00	; 0
     3c4:	08 18       	sub	r0, r8
     3c6:	00 00       	nop
     3c8:	40 40       	sbci	r20, 0x00	; 0
     3ca:	c0 80       	ld	r12, Z
     3cc:	1c 12       	cpse	r1, r28
     3ce:	1e 1e       	adc	r1, r30
     3d0:	f8 f8       	.word	0xf8f8	; ????
     3d2:	40 c0       	rjmp	.+128    	; 0x454 <__LOCK_REGION_LENGTH__+0x54>
     3d4:	80 1e       	adc	r8, r16
     3d6:	1e 10       	cpse	r1, r14
     3d8:	1e 0e       	add	r1, r30
     3da:	80 c0       	rjmp	.+256    	; 0x4dc <__LOCK_REGION_LENGTH__+0xdc>
     3dc:	40 80       	ld	r4, Z
     3de:	0e 1e       	adc	r0, r30
     3e0:	10 08       	sbc	r1, r0
     3e2:	80 c0       	rjmp	.+256    	; 0x4e4 <__LOCK_REGION_LENGTH__+0xe4>
     3e4:	40 f8       	bld	r4, 0
     3e6:	f8 0e       	add	r15, r24
     3e8:	1e 10       	cpse	r1, r14
     3ea:	1e 1e       	adc	r1, r30
     3ec:	80 c0       	rjmp	.+256    	; 0x4ee <__LOCK_REGION_LENGTH__+0xee>
     3ee:	40 80       	ld	r4, Z
     3f0:	0e 1e       	adc	r0, r30
     3f2:	12 0a       	sbc	r1, r18
     3f4:	f0 f8       	bld	r15, 0
     3f6:	48 1e       	adc	r4, r24
     3f8:	1e 00       	.word	0x001e	; ????
     3fa:	80 c0       	rjmp	.+256    	; 0x4fc <__LOCK_REGION_LENGTH__+0xfc>
     3fc:	40 c0       	rjmp	.+128    	; 0x47e <__LOCK_REGION_LENGTH__+0x7e>
     3fe:	c0 2e       	mov	r12, r16
     400:	7e 50       	subi	r23, 0x0E	; 14
     402:	7e 3e       	cpi	r23, 0xEE	; 238
     404:	f8 f8       	.word	0xf8f8	; ????
     406:	40 c0       	rjmp	.+128    	; 0x488 <__LOCK_REGION_LENGTH__+0x88>
     408:	80 1e       	adc	r8, r16
     40a:	1e 00       	.word	0x001e	; ????
     40c:	1e 1e       	adc	r1, r30
     40e:	d8 d8       	rcall	.-3664   	; 0xfffff5c0 <__eeprom_end+0xff7ef5c0>
     410:	1e 1e       	adc	r1, r30
     412:	d8 d8       	rcall	.-3664   	; 0xfffff5c4 <__eeprom_end+0xff7ef5c4>
     414:	7e 3e       	cpi	r23, 0xEE	; 238
     416:	f8 f8       	.word	0xf8f8	; ????
     418:	80 c0       	rjmp	.+256    	; 0x51a <__LOCK_REGION_LENGTH__+0x11a>
     41a:	00 1e       	adc	r0, r16
     41c:	1e 06       	cpc	r1, r30
     41e:	1e 18       	sub	r1, r14
     420:	f8 f8       	.word	0xf8f8	; ????
     422:	1e 1e       	adc	r1, r30
     424:	c0 c0       	rjmp	.+384    	; 0x5a6 <__LOCK_REGION_LENGTH__+0x1a6>
     426:	40 c0       	rjmp	.+128    	; 0x4a8 <__LOCK_REGION_LENGTH__+0xa8>
     428:	80 40       	sbci	r24, 0x00	; 0
     42a:	c0 80       	ld	r12, Z
     42c:	1e 1e       	adc	r1, r30
     42e:	00 1e       	adc	r0, r16
     430:	1e 00       	.word	0x001e	; ????
     432:	1e 1e       	adc	r1, r30
     434:	c0 c0       	rjmp	.+384    	; 0x5b6 <__LOCK_REGION_LENGTH__+0x1b6>
     436:	40 c0       	rjmp	.+128    	; 0x4b8 <__LOCK_REGION_LENGTH__+0xb8>
     438:	80 1e       	adc	r8, r16
     43a:	1e 00       	.word	0x001e	; ????
     43c:	1e 1e       	adc	r1, r30
     43e:	80 c0       	rjmp	.+256    	; 0x540 <__LOCK_REGION_LENGTH__+0x140>
     440:	40 c0       	rjmp	.+128    	; 0x4c2 <__LOCK_REGION_LENGTH__+0xc2>
     442:	80 0e       	add	r8, r16
     444:	1e 10       	cpse	r1, r14
     446:	1e 0e       	add	r1, r30
     448:	c0 c0       	rjmp	.+384    	; 0x5ca <__LOCK_REGION_LENGTH__+0x1ca>
     44a:	40 c0       	rjmp	.+128    	; 0x4cc <__LOCK_REGION_LENGTH__+0xcc>
     44c:	80 7e       	andi	r24, 0xE0	; 224
     44e:	7e 10       	cpse	r7, r14
     450:	1e 0e       	add	r1, r30
     452:	80 c0       	rjmp	.+256    	; 0x554 <__LOCK_REGION_LENGTH__+0x154>
     454:	40 c0       	rjmp	.+128    	; 0x4d6 <__LOCK_REGION_LENGTH__+0xd6>
     456:	c0 0e       	add	r12, r16
     458:	1e 10       	cpse	r1, r14
     45a:	7e 7e       	andi	r23, 0xEE	; 238
     45c:	c0 c0       	rjmp	.+384    	; 0x5de <__LOCK_REGION_LENGTH__+0x1de>
     45e:	40 40       	sbci	r20, 0x00	; 0
     460:	1e 1e       	adc	r1, r30
     462:	00 00       	nop
     464:	80 c0       	rjmp	.+256    	; 0x566 <__LOCK_REGION_LENGTH__+0x166>
     466:	40 80       	ld	r4, Z
     468:	0a 12       	cpse	r0, r26
     46a:	1e 0e       	add	r1, r30
     46c:	e0 f0       	brcs	.+56     	; 0x4a6 <__LOCK_REGION_LENGTH__+0xa6>
     46e:	40 0e       	add	r4, r16
     470:	1e 10       	cpse	r1, r14
     472:	c0 c0       	rjmp	.+384    	; 0x5f4 <__LOCK_REGION_LENGTH__+0x1f4>
     474:	00 c0       	rjmp	.+0      	; 0x476 <__LOCK_REGION_LENGTH__+0x76>
     476:	c0 0e       	add	r12, r16
     478:	1e 10       	cpse	r1, r14
     47a:	1e 1e       	adc	r1, r30
     47c:	c0 c0       	rjmp	.+384    	; 0x5fe <__LOCK_REGION_LENGTH__+0x1fe>
     47e:	00 c0       	rjmp	.+0      	; 0x480 <__LOCK_REGION_LENGTH__+0x80>
     480:	c0 00       	.word	0x00c0	; ????
     482:	1e 18       	sub	r1, r14
     484:	1e 00       	.word	0x001e	; ????
     486:	c0 c0       	rjmp	.+384    	; 0x608 <__LOCK_REGION_LENGTH__+0x208>
     488:	00 c0       	rjmp	.+0      	; 0x48a <__LOCK_REGION_LENGTH__+0x8a>
     48a:	00 c0       	rjmp	.+0      	; 0x48c <__LOCK_REGION_LENGTH__+0x8c>
     48c:	c0 02       	muls	r28, r16
     48e:	1e 1c       	adc	r1, r14
     490:	02 1c       	adc	r0, r2
     492:	1e 02       	muls	r17, r30
     494:	40 c0       	rjmp	.+128    	; 0x516 <__LOCK_REGION_LENGTH__+0x116>
     496:	00 c0       	rjmp	.+0      	; 0x498 <__LOCK_REGION_LENGTH__+0x98>
     498:	40 10       	cpse	r4, r0
     49a:	1a 06       	cpc	r1, r26
     49c:	18 10       	cpse	r1, r8
     49e:	c0 c0       	rjmp	.+384    	; 0x620 <__LOCK_REGION_LENGTH__+0x220>
     4a0:	00 c0       	rjmp	.+0      	; 0x4a2 <__LOCK_REGION_LENGTH__+0xa2>
     4a2:	c0 40       	sbci	r28, 0x00	; 0
     4a4:	4e 3c       	cpi	r20, 0xCE	; 206
     4a6:	0e 00       	.word	0x000e	; ????
     4a8:	40 40       	sbci	r20, 0x00	; 0
     4aa:	c0 c0       	rjmp	.+384    	; 0x62c <__LOCK_REGION_LENGTH__+0x22c>
     4ac:	18 1e       	adc	r1, r24
     4ae:	16 10       	cpse	r1, r6
     4b0:	f0 f8       	bld	r15, 0
     4b2:	08 3e       	cpi	r16, 0xE8	; 232
     4b4:	7c 40       	sbci	r23, 0x0C	; 12
     4b6:	f8 f8       	.word	0xf8f8	; ????
     4b8:	7e 7e       	andi	r23, 0xEE	; 238
     4ba:	08 f8       	.word	0xf808	; ????
     4bc:	f0 00       	.word	0x00f0	; ????
     4be:	40 7c       	andi	r20, 0xC0	; 192
     4c0:	3e 02       	muls	r19, r30
     4c2:	80 80       	ld	r8, Z
     4c4:	80 00       	.word	0x0080	; ????
     4c6:	00 80       	ld	r0, Z
     4c8:	02 00       	.word	0x0002	; ????
     4ca:	00 02       	muls	r16, r16
     4cc:	02 02       	muls	r16, r18
     4ce:	f0 f0       	brcs	.+60     	; 0x50c <__LOCK_REGION_LENGTH__+0x10c>
     4d0:	1e 1e       	adc	r1, r30
     4d2:	f0 f0       	brcs	.+60     	; 0x510 <__LOCK_REGION_LENGTH__+0x110>
     4d4:	1e 1e       	adc	r1, r30
     4d6:	f0 f0       	brcs	.+60     	; 0x514 <__LOCK_REGION_LENGTH__+0x114>
     4d8:	1e 1e       	adc	r1, r30
     4da:	f0 f0       	brcs	.+60     	; 0x518 <__LOCK_REGION_LENGTH__+0x118>
     4dc:	1e 1e       	adc	r1, r30
     4de:	f0 f0       	brcs	.+60     	; 0x51c <__LOCK_REGION_LENGTH__+0x11c>
     4e0:	1e 1e       	adc	r1, r30
     4e2:	f0 f0       	brcs	.+60     	; 0x520 <__LOCK_REGION_LENGTH__+0x120>
     4e4:	1e 1e       	adc	r1, r30
     4e6:	f0 f0       	brcs	.+60     	; 0x524 <__LOCK_REGION_LENGTH__+0x124>
     4e8:	1e 1e       	adc	r1, r30
     4ea:	f0 f0       	brcs	.+60     	; 0x528 <__LOCK_REGION_LENGTH__+0x128>
     4ec:	1e 1e       	adc	r1, r30
     4ee:	f0 f0       	brcs	.+60     	; 0x52c <__LOCK_REGION_LENGTH__+0x12c>
     4f0:	1e 1e       	adc	r1, r30
     4f2:	f0 f0       	brcs	.+60     	; 0x530 <__LOCK_REGION_LENGTH__+0x130>
     4f4:	1e 1e       	adc	r1, r30
     4f6:	f0 f0       	brcs	.+60     	; 0x534 <__LOCK_REGION_LENGTH__+0x134>
     4f8:	1e 1e       	adc	r1, r30
     4fa:	f0 f0       	brcs	.+60     	; 0x538 <__LOCK_REGION_LENGTH__+0x138>
     4fc:	1e 1e       	adc	r1, r30
     4fe:	f0 f0       	brcs	.+60     	; 0x53c <__LOCK_REGION_LENGTH__+0x13c>
     500:	1e 1e       	adc	r1, r30
     502:	f0 f0       	brcs	.+60     	; 0x540 <__LOCK_REGION_LENGTH__+0x140>
     504:	1e 1e       	adc	r1, r30
     506:	f0 f0       	brcs	.+60     	; 0x544 <__LOCK_REGION_LENGTH__+0x144>
     508:	1e 1e       	adc	r1, r30
     50a:	f0 f0       	brcs	.+60     	; 0x548 <__LOCK_REGION_LENGTH__+0x148>
     50c:	1e 1e       	adc	r1, r30
     50e:	f0 f0       	brcs	.+60     	; 0x54c <__LOCK_REGION_LENGTH__+0x14c>
     510:	1e 1e       	adc	r1, r30
     512:	f0 f0       	brcs	.+60     	; 0x550 <__LOCK_REGION_LENGTH__+0x150>
     514:	1e 1e       	adc	r1, r30
     516:	f0 f0       	brcs	.+60     	; 0x554 <__LOCK_REGION_LENGTH__+0x154>
     518:	1e 1e       	adc	r1, r30
     51a:	f0 f0       	brcs	.+60     	; 0x558 <__LOCK_REGION_LENGTH__+0x158>
     51c:	1e 1e       	adc	r1, r30
     51e:	f0 f0       	brcs	.+60     	; 0x55c <__LOCK_REGION_LENGTH__+0x15c>
     520:	1e 1e       	adc	r1, r30
     522:	f0 f0       	brcs	.+60     	; 0x560 <__LOCK_REGION_LENGTH__+0x160>
     524:	1e 1e       	adc	r1, r30
     526:	f0 f0       	brcs	.+60     	; 0x564 <__LOCK_REGION_LENGTH__+0x164>
     528:	1e 1e       	adc	r1, r30
     52a:	f0 f0       	brcs	.+60     	; 0x568 <__LOCK_REGION_LENGTH__+0x168>
     52c:	1e 1e       	adc	r1, r30
     52e:	f0 f0       	brcs	.+60     	; 0x56c <__LOCK_REGION_LENGTH__+0x16c>
     530:	1e 1e       	adc	r1, r30
     532:	f0 f0       	brcs	.+60     	; 0x570 <__LOCK_REGION_LENGTH__+0x170>
     534:	1e 1e       	adc	r1, r30
     536:	f0 f0       	brcs	.+60     	; 0x574 <__LOCK_REGION_LENGTH__+0x174>
     538:	1e 1e       	adc	r1, r30
     53a:	f0 f0       	brcs	.+60     	; 0x578 <__LOCK_REGION_LENGTH__+0x178>
     53c:	1e 1e       	adc	r1, r30
     53e:	f0 f0       	brcs	.+60     	; 0x57c <__LOCK_REGION_LENGTH__+0x17c>
     540:	1e 1e       	adc	r1, r30
     542:	f0 f0       	brcs	.+60     	; 0x580 <__LOCK_REGION_LENGTH__+0x180>
     544:	1e 1e       	adc	r1, r30
     546:	f0 f0       	brcs	.+60     	; 0x584 <__LOCK_REGION_LENGTH__+0x184>
     548:	1e 1e       	adc	r1, r30
     54a:	f0 f0       	brcs	.+60     	; 0x588 <__LOCK_REGION_LENGTH__+0x188>
     54c:	1e 1e       	adc	r1, r30
     54e:	f0 f0       	brcs	.+60     	; 0x58c <__LOCK_REGION_LENGTH__+0x18c>
     550:	1e 1e       	adc	r1, r30
     552:	40 40       	sbci	r20, 0x00	; 0
     554:	7e 7e       	andi	r23, 0xEE	; 238
     556:	80 c0       	rjmp	.+256    	; 0x658 <__LOCK_REGION_LENGTH__+0x258>
     558:	c0 f8       	bld	r12, 0
     55a:	80 0e       	add	r8, r16
     55c:	7e 1e       	adc	r7, r30
     55e:	18 08       	sbc	r1, r8
     560:	80 f0       	brcs	.+32     	; 0x582 <__LOCK_REGION_LENGTH__+0x182>
     562:	f8 88       	ldd	r15, Y+16	; 0x10
     564:	18 10       	cpse	r1, r8
     566:	18 1e       	adc	r1, r24
     568:	16 10       	cpse	r1, r6
     56a:	10 10       	cpse	r1, r0
     56c:	20 f0       	brcs	.+8      	; 0x576 <__LOCK_REGION_LENGTH__+0x176>
     56e:	20 20       	and	r2, r0
     570:	f0 04       	cpc	r15, r0
     572:	0e 04       	cpc	r0, r14
     574:	04 0e       	add	r0, r20
     576:	88 f8       	.word	0xf888	; ????
     578:	e0 e0       	ldi	r30, 0x00	; 0
     57a:	f8 88       	ldd	r15, Y+16	; 0x10
     57c:	04 04       	cpc	r0, r4
     57e:	1e 1e       	adc	r1, r30
     580:	04 04       	cpc	r0, r4
     582:	f8 f8       	.word	0xf8f8	; ????
     584:	7c 7c       	andi	r23, 0xCC	; 204
     586:	b0 48       	sbci	r27, 0x80	; 128
     588:	c8 90       	.word	0x90c8	; ????
     58a:	26 4c       	sbci	r18, 0xC6	; 198
     58c:	48 36       	cpi	r20, 0x68	; 104
     58e:	10 00       	.word	0x0010	; ????
     590:	10 00       	.word	0x0010	; ????
     592:	00 00       	nop
     594:	e0 10       	cpse	r14, r0
     596:	c8 28       	or	r12, r8
     598:	48 10       	cpse	r4, r8
     59a:	e0 06       	cpc	r14, r16
     59c:	08 12       	cpse	r0, r24
     59e:	14 12       	cpse	r1, r20
     5a0:	08 06       	cpc	r0, r24
     5a2:	68 68       	ori	r22, 0x88	; 136
     5a4:	78 00       	.word	0x0078	; ????
     5a6:	00 00       	nop
     5a8:	c0 40       	sbci	r28, 0x00	; 0
     5aa:	00 c0       	rjmp	.+0      	; 0x5ac <__LOCK_REGION_LENGTH__+0x1ac>
     5ac:	40 0e       	add	r4, r16
     5ae:	18 02       	muls	r17, r24
     5b0:	0e 18       	sub	r0, r14
     5b2:	c0 c0       	rjmp	.+384    	; 0x734 <__LOCK_REGION_LENGTH__+0x334>
     5b4:	c0 c0       	rjmp	.+384    	; 0x736 <__LOCK_REGION_LENGTH__+0x336>
     5b6:	c0 00       	.word	0x00c0	; ????
     5b8:	00 00       	nop
     5ba:	0e 0e       	add	r0, r30
     5bc:	00 00       	nop
     5be:	00 04       	cpc	r0, r0
     5c0:	04 04       	cpc	r0, r4
     5c2:	e0 10       	cpse	r14, r0
     5c4:	e8 a8       	ldd	r14, Y+48	; 0x30
     5c6:	68 10       	cpse	r6, r8
     5c8:	e0 06       	cpc	r14, r16
     5ca:	08 16       	cp	r0, r24
     5cc:	10 16       	cp	r1, r16
     5ce:	08 06       	cpc	r0, r24
     5d0:	04 04       	cpc	r0, r4
     5d2:	04 04       	cpc	r0, r4
     5d4:	04 04       	cpc	r0, r4
     5d6:	00 00       	nop
     5d8:	00 00       	nop
     5da:	00 00       	nop
     5dc:	30 48       	sbci	r19, 0x80	; 128
     5de:	48 30       	cpi	r20, 0x08	; 8
     5e0:	00 00       	nop
     5e2:	00 00       	nop
     5e4:	60 60       	ori	r22, 0x00	; 0
     5e6:	f8 f8       	.word	0xf8f8	; ????
     5e8:	60 60       	ori	r22, 0x00	; 0
     5ea:	18 18       	sub	r1, r8
     5ec:	1a 1a       	sub	r1, r26
     5ee:	18 18       	sub	r1, r8
     5f0:	48 68       	ori	r20, 0x88	; 136
     5f2:	58 00       	.word	0x0058	; ????
     5f4:	00 00       	nop
     5f6:	48 58       	subi	r20, 0x88	; 136
     5f8:	78 00       	.word	0x0078	; ????
     5fa:	00 00       	nop
     5fc:	18 08       	sbc	r1, r8
     5fe:	00 00       	nop
     600:	c0 c0       	rjmp	.+384    	; 0x782 <__LOCK_REGION_LENGTH__+0x382>
     602:	00 c0       	rjmp	.+0      	; 0x604 <__LOCK_REGION_LENGTH__+0x204>
     604:	c0 7e       	andi	r28, 0xE0	; 224
     606:	7e 10       	cpse	r7, r14
     608:	1e 1e       	adc	r1, r30
     60a:	f0 f8       	bld	r15, 0
     60c:	08 f8       	.word	0xf808	; ????
     60e:	08 00       	.word	0x0008	; ????
     610:	7e 00       	.word	0x007e	; ????
     612:	7e 00       	.word	0x007e	; ????
     614:	00 02       	muls	r16, r16
     616:	00 00       	nop
     618:	00 a0       	ldd	r0, Z+32	; 0x20
     61a:	a0 e0       	ldi	r26, 0x00	; 0
     61c:	10 78       	andi	r17, 0x80	; 128
     61e:	00 00       	nop
     620:	78 48       	sbci	r23, 0x88	; 136
     622:	78 00       	.word	0x0078	; ????
     624:	00 00       	nop
     626:	c0 80       	ld	r12, Z
     628:	00 c0       	rjmp	.+0      	; 0x62a <__LOCK_REGION_LENGTH__+0x22a>
     62a:	80 10       	cpse	r8, r0
     62c:	1e 04       	cpc	r1, r14
     62e:	10 1e       	adc	r1, r16
     630:	10 78       	andi	r17, 0x80	; 128
     632:	00 80       	ld	r0, Z
     634:	40 30       	cpi	r20, 0x00	; 0
     636:	08 00       	.word	0x0008	; ????
     638:	00 10       	cpse	r0, r0
     63a:	0c 02       	muls	r16, r28
     63c:	00 0c       	add	r0, r0
     63e:	1e 08       	sbc	r1, r14
     640:	10 78       	andi	r17, 0x80	; 128
     642:	00 80       	ld	r0, Z
     644:	40 30       	cpi	r20, 0x00	; 0
     646:	08 00       	.word	0x0008	; ????
     648:	00 10       	cpse	r0, r0
     64a:	0c 02       	muls	r16, r28
     64c:	00 12       	cpse	r0, r16
     64e:	1a 16       	cp	r1, r26
     650:	48 58       	subi	r20, 0x88	; 136
     652:	78 80       	ld	r7, Y
     654:	40 30       	cpi	r20, 0x00	; 0
     656:	08 00       	.word	0x0008	; ????
     658:	00 10       	cpse	r0, r0
     65a:	0c 02       	muls	r16, r28
     65c:	00 0c       	add	r0, r0
     65e:	1e 08       	sbc	r1, r14
     660:	00 40       	sbci	r16, 0x00	; 0
     662:	40 00       	.word	0x0040	; ????
     664:	00 38       	cpi	r16, 0x80	; 128
     666:	7e 46       	sbci	r23, 0x6E	; 110
     668:	60 20       	and	r6, r0
     66a:	00 e0       	ldi	r16, 0x00	; 0
     66c:	39 3b       	cpi	r19, 0xB9	; 185
     66e:	e0 00       	.word	0x00e0	; ????
     670:	1c 1e       	adc	r1, r28
     672:	02 02       	muls	r16, r18
     674:	1e 1c       	adc	r1, r14
     676:	00 e0       	ldi	r16, 0x00	; 0
     678:	3b 39       	cpi	r19, 0x9B	; 155
     67a:	e0 00       	.word	0x00e0	; ????
     67c:	1c 1e       	adc	r1, r28
     67e:	02 02       	muls	r16, r18
     680:	1e 1c       	adc	r1, r14
     682:	00 e2       	ldi	r16, 0x20	; 32
     684:	3b 39       	cpi	r19, 0x9B	; 155
     686:	e3 02       	muls	r30, r19
     688:	1c 1e       	adc	r1, r28
     68a:	02 02       	muls	r16, r18
     68c:	1e 1c       	adc	r1, r14
     68e:	00 e3       	ldi	r16, 0x30	; 48
     690:	39 3a       	cpi	r19, 0xA9	; 169
     692:	e3 00       	.word	0x00e3	; ????
     694:	1c 1e       	adc	r1, r28
     696:	02 02       	muls	r16, r18
     698:	1e 1c       	adc	r1, r14
     69a:	00 e2       	ldi	r16, 0x20	; 32
     69c:	38 3a       	cpi	r19, 0xA8	; 168
     69e:	e0 00       	.word	0x00e0	; ????
     6a0:	1c 1e       	adc	r1, r28
     6a2:	02 02       	muls	r16, r18
     6a4:	1e 1c       	adc	r1, r14
     6a6:	00 e0       	ldi	r16, 0x00	; 0
     6a8:	3b 3b       	cpi	r19, 0xBB	; 187
     6aa:	e0 00       	.word	0x00e0	; ????
     6ac:	1c 1e       	adc	r1, r28
     6ae:	02 02       	muls	r16, r18
     6b0:	1e 1c       	adc	r1, r14
     6b2:	00 e0       	ldi	r16, 0x00	; 0
     6b4:	f8 98       	cbi	0x1f, 0	; 31
     6b6:	f8 f8       	.word	0xf8f8	; ????
     6b8:	48 48       	sbci	r20, 0x88	; 136
     6ba:	48 48       	sbci	r20, 0x88	; 136
     6bc:	1e 0e       	add	r1, r30
     6be:	00 00       	nop
     6c0:	1e 1e       	adc	r1, r30
     6c2:	10 10       	cpse	r1, r0
     6c4:	10 10       	cpse	r1, r0
     6c6:	f0 f8       	bld	r15, 0
     6c8:	08 08       	sbc	r0, r8
     6ca:	18 10       	cpse	r1, r8
     6cc:	0e be       	out	0x3e, r0	; 62
     6ce:	b0 f0       	brcs	.+44     	; 0x6fc <__LOCK_REGION_LENGTH__+0x2fc>
     6d0:	1c 0c       	add	r1, r12
     6d2:	f8 f9       	.word	0xf9f8	; ????
     6d4:	8b 88       	ldd	r8, Y+19	; 0x13
     6d6:	88 1e       	adc	r8, r24
     6d8:	1e 10       	cpse	r1, r14
     6da:	10 10       	cpse	r1, r0
     6dc:	f8 f8       	.word	0xf8f8	; ????
     6de:	8b 89       	ldd	r24, Y+19	; 0x13
     6e0:	88 1e       	adc	r8, r24
     6e2:	1e 10       	cpse	r1, r14
     6e4:	10 10       	cpse	r1, r0
     6e6:	f8 fa       	.word	0xfaf8	; ????
     6e8:	8b 89       	ldd	r24, Y+19	; 0x13
     6ea:	8b 02       	muls	r24, r27
     6ec:	1e 1e       	adc	r1, r30
     6ee:	10 10       	cpse	r1, r0
     6f0:	10 00       	.word	0x0010	; ????
     6f2:	f8 fa       	.word	0xfaf8	; ????
     6f4:	88 8a       	std	Y+16, r8	; 0x10
     6f6:	88 1e       	adc	r8, r24
     6f8:	1e 10       	cpse	r1, r14
     6fa:	10 10       	cpse	r1, r0
     6fc:	f9 fb       	.word	0xfbf9	; ????
     6fe:	1e 1e       	adc	r1, r30
     700:	fb f9       	.word	0xf9fb	; ????
     702:	1e 1e       	adc	r1, r30
     704:	fb f9       	.word	0xf9fb	; ????
     706:	03 1e       	adc	r0, r19
     708:	1e 00       	.word	0x001e	; ????
     70a:	f8 fa       	.word	0xfaf8	; ????
     70c:	1e 1e       	adc	r1, r30
     70e:	f8 f8       	.word	0xf8f8	; ????
     710:	88 08       	sbc	r8, r8
     712:	f8 f0       	brcs	.+62     	; 0x752 <__LOCK_REGION_LENGTH__+0x352>
     714:	1e 1e       	adc	r1, r30
     716:	10 10       	cpse	r1, r0
     718:	1e 0e       	add	r1, r30
     71a:	f8 fb       	.word	0xfbf8	; ????
     71c:	f1 82       	std	Z+1, r15	; 0x01
     71e:	fb f8       	.word	0xf8fb	; ????
     720:	1e 1e       	adc	r1, r30
     722:	00 0e       	add	r0, r16
     724:	1e 1e       	adc	r1, r30
     726:	e0 f0       	brcs	.+56     	; 0x760 <__LOCK_REGION_LENGTH__+0x360>
     728:	18 09       	sbc	r17, r8
     72a:	1b f0       	brvs	.+6      	; 0x732 <__LOCK_REGION_LENGTH__+0x332>
     72c:	e0 06       	cpc	r14, r16
     72e:	0e 18       	sub	r0, r14
     730:	10 18       	sub	r1, r0
     732:	0e 06       	cpc	r0, r30
     734:	e0 f0       	brcs	.+56     	; 0x76e <__LOCK_REGION_LENGTH__+0x36e>
     736:	1b 09       	sbc	r17, r11
     738:	18 f0       	brcs	.+6      	; 0x740 <__LOCK_REGION_LENGTH__+0x340>
     73a:	e0 06       	cpc	r14, r16
     73c:	0e 18       	sub	r0, r14
     73e:	10 18       	sub	r1, r0
     740:	0e 06       	cpc	r0, r30
     742:	e0 f2       	brcs	.-72     	; 0x6fc <__LOCK_REGION_LENGTH__+0x2fc>
     744:	1b 09       	sbc	r17, r11
     746:	1b f2       	brvs	.-122    	; 0x6ce <__LOCK_REGION_LENGTH__+0x2ce>
     748:	e0 06       	cpc	r14, r16
     74a:	0e 18       	sub	r0, r14
     74c:	10 18       	sub	r1, r0
     74e:	0e 06       	cpc	r0, r30
     750:	e0 f3       	brcs	.-8      	; 0x74a <__LOCK_REGION_LENGTH__+0x34a>
     752:	19 0a       	sbc	r1, r25
     754:	1b f0       	brvs	.+6      	; 0x75c <__LOCK_REGION_LENGTH__+0x35c>
     756:	e0 06       	cpc	r14, r16
     758:	0e 18       	sub	r0, r14
     75a:	10 18       	sub	r1, r0
     75c:	0e 06       	cpc	r0, r30
     75e:	e0 f0       	brcs	.+56     	; 0x798 <__LOCK_REGION_LENGTH__+0x398>
     760:	1a 08       	sbc	r1, r10
     762:	1a f0       	brmi	.+6      	; 0x76a <__LOCK_REGION_LENGTH__+0x36a>
     764:	e0 06       	cpc	r14, r16
     766:	0e 18       	sub	r0, r14
     768:	10 18       	sub	r1, r0
     76a:	0e 06       	cpc	r0, r30
     76c:	40 e0       	ldi	r20, 0x00	; 0
     76e:	80 e0       	ldi	r24, 0x00	; 0
     770:	40 04       	cpc	r4, r0
     772:	0e 02       	muls	r16, r30
     774:	0e 04       	cpc	r0, r14
     776:	e0 f0       	brcs	.+56     	; 0x7b0 <__LOCK_REGION_LENGTH__+0x3b0>
     778:	18 c8       	rjmp	.-4048   	; 0xfffff7aa <__eeprom_end+0xff7ef7aa>
     77a:	78 f0       	brcs	.+30     	; 0x79a <__LOCK_REGION_LENGTH__+0x39a>
     77c:	e8 16       	cp	r14, r24
     77e:	0e 1e       	adc	r0, r30
     780:	12 18       	sub	r1, r2
     782:	0e 06       	cpc	r0, r30
     784:	f8 f8       	.word	0xf8f8	; ????
     786:	01 03       	mulsu	r16, r17
     788:	f8 f8       	.word	0xf8f8	; ????
     78a:	0e 1e       	adc	r0, r30
     78c:	10 10       	cpse	r1, r0
     78e:	1e 0e       	add	r1, r30
     790:	f8 f8       	.word	0xf8f8	; ????
     792:	03 01       	movw	r0, r6
     794:	f8 f8       	.word	0xf8f8	; ????
     796:	0e 1e       	adc	r0, r30
     798:	10 10       	cpse	r1, r0
     79a:	1e 0e       	add	r1, r30
     79c:	f8 fa       	.word	0xfaf8	; ????
     79e:	03 01       	movw	r0, r6
     7a0:	fb fa       	.word	0xfafb	; ????
     7a2:	0e 1e       	adc	r0, r30
     7a4:	10 10       	cpse	r1, r0
     7a6:	1e 0e       	add	r1, r30
     7a8:	f8 fa       	.word	0xfaf8	; ????
     7aa:	00 02       	muls	r16, r16
     7ac:	f8 f8       	.word	0xf8f8	; ????
     7ae:	0e 1e       	adc	r0, r30
     7b0:	10 10       	cpse	r1, r0
     7b2:	1e 0e       	add	r1, r30
     7b4:	18 78       	andi	r17, 0x88	; 136
     7b6:	e3 e1       	ldi	r30, 0x13	; 19
     7b8:	78 18       	sub	r7, r8
     7ba:	00 00       	nop
     7bc:	1e 1e       	adc	r1, r30
     7be:	00 00       	nop
     7c0:	f8 f8       	.word	0xf8f8	; ????
     7c2:	20 20       	and	r2, r0
     7c4:	e0 c0       	rjmp	.+448    	; 0x986 <__stack+0x87>
     7c6:	1e 1e       	adc	r1, r30
     7c8:	04 04       	cpc	r0, r4
     7ca:	06 02       	muls	r16, r22
     7cc:	f0 f8       	bld	r15, 0
     7ce:	c8 f8       	.word	0xf8c8	; ????
     7d0:	30 00       	.word	0x0030	; ????
     7d2:	1e 1e       	adc	r1, r30
     7d4:	00 12       	cpse	r0, r16
     7d6:	1e 0c       	add	r1, r14
     7d8:	40 48       	sbci	r20, 0x80	; 128
     7da:	d8 80       	ld	r13, Y
     7dc:	1c 12       	cpse	r1, r28
     7de:	1e 1e       	adc	r1, r30
     7e0:	40 58       	subi	r20, 0x80	; 128
     7e2:	c8 80       	ld	r12, Y
     7e4:	1c 12       	cpse	r1, r28
     7e6:	1e 1e       	adc	r1, r30
     7e8:	50 58       	subi	r21, 0x80	; 128
     7ea:	c8 98       	cbi	0x19, 0	; 25
     7ec:	10 1c       	adc	r1, r0
     7ee:	12 1e       	adc	r1, r18
     7f0:	1e 00       	.word	0x001e	; ????
     7f2:	58 48       	sbci	r21, 0x88	; 136
     7f4:	d0 98       	cbi	0x1a, 0	; 26
     7f6:	1c 12       	cpse	r1, r28
     7f8:	1e 1e       	adc	r1, r30
     7fa:	50 40       	sbci	r21, 0x00	; 0
     7fc:	d0 80       	ld	r13, Z
     7fe:	1c 12       	cpse	r1, r28
     800:	1e 1e       	adc	r1, r30
     802:	40 58       	subi	r20, 0x80	; 128
     804:	d8 80       	ld	r13, Y
     806:	1c 12       	cpse	r1, r28
     808:	1e 1e       	adc	r1, r30
     80a:	40 40       	sbci	r20, 0x00	; 0
     80c:	40 c0       	rjmp	.+128    	; 0x88e <__LOCK_REGION_LENGTH__+0x48e>
     80e:	c0 40       	sbci	r28, 0x00	; 0
     810:	c0 80       	ld	r12, Z
     812:	1c 1e       	adc	r1, r28
     814:	12 0e       	add	r1, r18
     816:	1e 12       	cpse	r1, r30
     818:	1a 0a       	sbc	r1, r26
     81a:	80 c0       	rjmp	.+256    	; 0x91c <__stack+0x1d>
     81c:	40 80       	ld	r4, Z
     81e:	ae be       	out	0x3e, r10	; 62
     820:	f0 08       	sbc	r15, r0
     822:	80 c8       	rjmp	.-3840   	; 0xfffff924 <__eeprom_end+0xff7ef924>
     824:	58 80       	ld	r5, Y
     826:	0e 1e       	adc	r0, r30
     828:	12 0a       	sbc	r1, r18
     82a:	80 d8       	rcall	.-3840   	; 0xfffff92c <__eeprom_end+0xff7ef92c>
     82c:	48 80       	ld	r4, Y
     82e:	0e 1e       	adc	r0, r30
     830:	12 0a       	sbc	r1, r18
     832:	90 d8       	rcall	.-3808   	; 0xfffff954 <__eeprom_end+0xff7ef954>
     834:	48 98       	cbi	0x09, 0	; 9
     836:	10 0e       	add	r1, r16
     838:	1e 12       	cpse	r1, r30
     83a:	0a 00       	.word	0x000a	; ????
     83c:	90 c0       	rjmp	.+288    	; 0x95e <__stack+0x5f>
     83e:	50 80       	ld	r5, Z
     840:	0e 1e       	adc	r0, r30
     842:	12 0a       	sbc	r1, r18
     844:	c8 d8       	rcall	.-3696   	; 0xfffff9d6 <__eeprom_end+0xff7ef9d6>
     846:	1e 1e       	adc	r1, r30
     848:	d8 c8       	rjmp	.-3664   	; 0xfffff9fa <__eeprom_end+0xff7ef9fa>
     84a:	1e 1e       	adc	r1, r30
     84c:	d8 c8       	rjmp	.-3664   	; 0xfffff9fe <__eeprom_end+0xff7ef9fe>
     84e:	18 1e       	adc	r1, r24
     850:	1e 00       	.word	0x001e	; ????
     852:	c0 d0       	rcall	.+384    	; 0x9d4 <__stack+0xd5>
     854:	1e 1e       	adc	r1, r30
     856:	80 e0       	ldi	r24, 0x00	; 0
     858:	58 f8       	.word	0xf858	; ????
     85a:	c0 0e       	add	r12, r16
     85c:	1e 10       	cpse	r1, r14
     85e:	1e 0e       	add	r1, r30
     860:	d8 c8       	rjmp	.-3664   	; 0xfffffa12 <__eeprom_end+0xff7efa12>
     862:	50 d8       	rcall	.-3936   	; 0xfffff904 <__eeprom_end+0xff7ef904>
     864:	80 1e       	adc	r8, r16
     866:	1e 00       	.word	0x001e	; ????
     868:	1e 1e       	adc	r1, r30
     86a:	80 c0       	rjmp	.+256    	; 0x96c <__stack+0x6d>
     86c:	48 d8       	rcall	.-3952   	; 0xfffff8fe <__eeprom_end+0xff7ef8fe>
     86e:	80 0e       	add	r8, r16
     870:	1e 10       	cpse	r1, r14
     872:	1e 0e       	add	r1, r30
     874:	80 d8       	rcall	.-3840   	; 0xfffff976 <__eeprom_end+0xff7ef976>
     876:	48 c0       	rjmp	.+144    	; 0x908 <__stack+0x9>
     878:	80 0e       	add	r8, r16
     87a:	1e 10       	cpse	r1, r14
     87c:	1e 0e       	add	r1, r30
     87e:	90 d8       	rcall	.-3808   	; 0xfffff9a0 <__eeprom_end+0xff7ef9a0>
     880:	48 d8       	rcall	.-3952   	; 0xfffff912 <__eeprom_end+0xff7ef912>
     882:	90 0e       	add	r9, r16
     884:	1e 10       	cpse	r1, r14
     886:	1e 0e       	add	r1, r30
     888:	98 c8       	rjmp	.-3792   	; 0xfffff9ba <__eeprom_end+0xff7ef9ba>
     88a:	50 d8       	rcall	.-3936   	; 0xfffff92c <__eeprom_end+0xff7ef92c>
     88c:	80 0e       	add	r8, r16
     88e:	1e 10       	cpse	r1, r14
     890:	1e 0e       	add	r1, r30
     892:	80 d0       	rcall	.+256    	; 0x994 <__stack+0x95>
     894:	40 d0       	rcall	.+128    	; 0x916 <__stack+0x17>
     896:	80 0e       	add	r8, r16
     898:	1e 10       	cpse	r1, r14
     89a:	1e 0e       	add	r1, r30
     89c:	80 80       	ld	r8, Z
     89e:	a0 a0       	ldd	r10, Z+32	; 0x20
     8a0:	80 80       	ld	r8, Z
     8a2:	02 02       	muls	r16, r18
     8a4:	0a 0a       	sbc	r0, r26
     8a6:	02 02       	muls	r16, r18
     8a8:	80 c0       	rjmp	.+256    	; 0x9aa <__stack+0xab>
     8aa:	40 c0       	rjmp	.+128    	; 0x92c <__stack+0x2d>
     8ac:	c0 1e       	adc	r12, r16
     8ae:	1e 16       	cp	r1, r30
     8b0:	1e 0e       	add	r1, r30
     8b2:	c0 c0       	rjmp	.+384    	; 0xa34 <__stack+0x135>
     8b4:	08 d8       	rcall	.-4080   	; 0xfffff8c6 <__eeprom_end+0xff7ef8c6>
     8b6:	c0 0e       	add	r12, r16
     8b8:	1e 10       	cpse	r1, r14
     8ba:	1e 1e       	adc	r1, r30
     8bc:	c0 d8       	rcall	.-3712   	; 0xfffffa3e <__eeprom_end+0xff7efa3e>
     8be:	08 c0       	rjmp	.+16     	; 0x8d0 <_ZL7font8x8>
     8c0:	c0 0e       	add	r12, r16
     8c2:	1e 10       	cpse	r1, r14
     8c4:	1e 1e       	adc	r1, r30
     8c6:	d0 d8       	rcall	.-3680   	; 0xfffffa68 <__eeprom_end+0xff7efa68>
     8c8:	08 d8       	rcall	.-4080   	; 0xfffff8da <__eeprom_end+0xff7ef8da>
     8ca:	d0 0e       	add	r13, r16
     8cc:	1e 10       	cpse	r1, r14
     8ce:	1e 1e       	adc	r1, r30

000008d0 <_ZL7font8x8>:
     8d0:	00 01 08 08 20 5f 00 00 00 00 00 00 00 00 00 00     .... _..........
     8e0:	00 00 5f 00 00 00 00 00 00 03 00 03 00 00 00 24     .._............$
     8f0:	7e 24 24 7e 24 00 00 2e 2a 7f 2a 3a 00 00 00 46     ~$$~$...*.*:...F
     900:	26 10 08 64 62 00 00 20 54 4a 54 20 50 00 00 00     &..db.. TJT P...
     910:	00 04 02 00 00 00 00 00 00 3c 42 00 00 00 00 00     .........<B.....
     920:	00 42 3c 00 00 00 00 10 54 38 54 10 00 00 00 10     .B<.....T8T.....
     930:	10 7c 10 10 00 00 00 00 00 80 60 00 00 00 00 10     .|........`.....
     940:	10 10 10 10 00 00 00 00 00 60 60 00 00 00 00 40     .........``....@
     950:	20 10 08 04 00 00 3c 62 52 4a 46 3c 00 00 44 42      .....<bRJF<..DB
     960:	7e 40 40 00 00 00 64 52 52 52 52 4c 00 00 24 42     ~@@...dRRRRL..$B
     970:	42 4a 4a 34 00 00 30 28 24 7e 20 20 00 00 2e 4a     BJJ4..0($~  ...J
     980:	4a 4a 4a 32 00 00 3c 4a 4a 4a 4a 30 00 00 02 02     JJJ2..<JJJJ0....
     990:	62 12 0a 06 00 00 34 4a 4a 4a 4a 34 00 00 0c 52     b.....4JJJJ4...R
     9a0:	52 52 52 3c 00 00 00 00 00 48 00 00 00 00 00 00     RRR<.....H......
     9b0:	80 64 00 00 00 00 00 00 10 28 44 00 00 00 00 28     .d.......(D....(
     9c0:	28 28 28 28 00 00 00 00 44 28 10 00 00 00 00 04     ((((....D(......
     9d0:	02 02 52 0a 04 00 00 3c 42 5a 56 5a 1c 00 7c 12     ..R....<BZVZ..|.
     9e0:	12 12 12 7c 00 00 7e 4a 4a 4a 4a 34 00 00 3c 42     ...|..~JJJJ4..<B
     9f0:	42 42 42 24 00 00 7e 42 42 42 24 18 00 00 7e 4a     BBB$..~BBB$...~J
     a00:	4a 4a 4a 42 00 00 7e 0a 0a 0a 0a 02 00 00 3c 42     JJJB..~.......<B
     a10:	42 52 52 34 00 00 7e 08 08 08 08 7e 00 00 00 42     BRR4..~....~...B
     a20:	42 7e 42 42 00 00 30 40 40 40 40 3e 00 00 7e 08     B~BB..0@@@@>..~.
     a30:	08 14 22 40 00 00 7e 40 40 40 40 40 00 00 7e 04     .."@..~@@@@@..~.
     a40:	08 08 04 7e 00 00 7e 04 08 10 20 7e 00 00 3c 42     ...~..~... ~..<B
     a50:	42 42 42 3c 00 00 7e 12 12 12 12 0c 00 00 3c 42     BBB<..~.......<B
     a60:	52 62 42 3c 00 00 7e 12 12 12 32 4c 00 00 24 4a     RbB<..~...2L..$J
     a70:	4a 4a 4a 30 00 00 02 02 02 7e 02 02 02 00 3e 40     JJJ0.....~....>@
     a80:	40 40 40 3e 00 00 1e 20 40 40 20 1e 00 00 3e 40     @@@>... @@ ...>@
     a90:	20 20 40 3e 00 00 42 24 18 18 24 42 00 00 02 04       @>..B$..$B....
     aa0:	08 70 08 04 02 00 42 62 52 4a 46 42 00 00 00 00     .p....BbRJFB....
     ab0:	7e 42 42 00 00 00 00 04 08 10 20 40 00 00 00 00     ~BB....... @....
     ac0:	42 42 7e 00 00 00 00 08 04 7e 04 08 00 00 80 80     BB~......~......
     ad0:	80 80 80 80 80 00 3c 42 99 a5 a5 81 42 3c 00 20     ......<B....B<. 
     ae0:	54 54 54 78 00 00 00 7e 48 48 48 30 00 00 00 00     TTTx...~HHH0....
     af0:	38 44 44 44 00 00 00 30 48 48 48 7e 00 00 00 38     8DDD...0HHH~...8
     b00:	54 54 54 48 00 00 00 00 00 7c 0a 02 00 00 00 18     TTTH.....|......
     b10:	a4 a4 a4 a4 7c 00 00 7e 08 08 08 70 00 00 00 00     ....|..~...p....
     b20:	00 48 7a 40 00 00 00 00 40 80 80 7a 00 00 00 7e     .Hz@....@..z...~
     b30:	18 24 40 00 00 00 00 00 00 3e 40 40 00 00 00 7c     .$@......>@@...|
     b40:	04 78 04 78 00 00 00 7c 04 04 04 78 00 00 00 38     .x.x...|...x...8
     b50:	44 44 44 38 00 00 00 fc 24 24 24 18 00 00 00 18     DDD8....$$$.....
     b60:	24 24 24 fc 80 00 00 00 78 04 04 04 00 00 00 48     $$$.....x......H
     b70:	54 54 54 20 00 00 00 00 04 3e 44 40 00 00 00 3c     TTT .....>D@...<
     b80:	40 40 40 3c 00 00 00 0c 30 40 30 0c 00 00 00 3c     @@@<....0@0....<
     b90:	40 38 40 3c 00 00 00 44 28 10 28 44 00 00 00 1c     @8@<...D(.(D....
     ba0:	a0 a0 a0 7c 00 00 00 44 64 54 4c 44 00 00 00 08     ...|...DdTLD....
     bb0:	08 76 42 42 00 00 00 00 00 7e 00 00 00 00 00 42     .vBB.....~.....B
     bc0:	42 76 08 08 00 00 00 00 04 02 04 02 00 00           Bv............

00000bce <_ZL15fixed_bold10x15>:
     bce:	00 00 0a 0f 20 5f 00 00 00 00 00 00 00 00 00 00     .... _..........
	...
     bea:	00 00 fe fe 00 00 00 00 00 00 00 00 19 19 00 00     ................
     bfa:	00 00 00 00 1e 1e 00 00 1e 1e 00 00 00 00 00 00     ................
     c0a:	00 00 00 00 00 00 00 30 fe fe 30 30 fe fe 30 00     .......0..00..0.
     c1a:	00 03 1f 1f 03 03 1f 1f 03 00 00 70 f8 d8 fe 98     ...........p....
     c2a:	98 00 00 00 00 0c 18 18 7f 19 1f 0f 00 00 1c b6     ................
     c3a:	a2 f6 cc 60 60 20 30 00 01 01 00 0e 1b 11 1b 0e     ...`` 0.........
     c4a:	00 00 00 00 dc 7e e6 c6 86 0c 80 80 00 07 0f 1c     .....~..........
     c5a:	18 19 1f 1e 1f 13 00 00 00 00 1e 1e 00 00 00 00     ................
	...
     c76:	00 e0 fc 1e 02 00 00 00 00 00 00 07 3f 78 40 00     ............?x@.
     c86:	00 00 00 00 02 1e fc e0 00 00 00 00 00 00 40 78     ..............@x
     c96:	3f 07 00 00 00 00 00 48 78 30 fe 30 78 48 00 00     ?......Hx0.0xH..
     ca6:	00 00 00 00 01 00 00 00 00 00 00 80 80 80 f0 f0     ................
     cb6:	80 80 80 00 00 01 01 01 0f 0f 01 01 01 00 00 00     ................
	...
     cce:	00 00 00 40 7c 3c 00 00 00 00 00 00 00 00 00 00     ...@|<..........
     cde:	00 00 00 00 00 00 03 03 03 03 03 00 00 00 00 00     ................
	...
     cfa:	1c 1c 00 00 00 00 00 00 00 00 c0 f0 3c 0e 02 00     ............<...
     d0a:	00 20 38 1e 07 01 00 00 00 00 00 f0 fc 0e c6 c6     . 8.............
     d1a:	0e fc f8 00 00 03 0f 1c 18 18 1c 0f 07 00 00 00     ................
     d2a:	0c 06 fe fe 00 00 00 00 00 18 18 18 1f 1f 18 18     ................
     d3a:	18 00 00 0c 06 06 06 86 c6 7c 38 00 00 18 1c 1e     .........|8.....
     d4a:	1b 19 18 18 18 00 00 0c 06 c6 c6 c6 c6 fc 38 00     ..............8.
     d5a:	00 0c 18 18 18 18 19 0f 0f 00 00 80 c0 70 18 0e     .............p..
     d6a:	fe fe 00 00 00 03 03 03 03 03 1f 1f 03 00 00 fe     ................
     d7a:	7e 66 66 66 e6 c6 80 00 00 0c 18 18 18 18 1c 0f     ~fff............
     d8a:	07 00 00 f0 fc ce 66 66 e6 cc 80 00 00 07 0f 1c     ......ff........
     d9a:	18 18 1c 0f 07 00 00 06 06 06 06 e6 fe 3e 0e 00     .............>..
     daa:	00 00 10 1c 0f 03 00 00 00 00 00 38 fc c6 c6 c6     ...........8....
     dba:	c6 fc 38 00 00 0f 0f 18 18 18 18 0f 0f 00 00 78     ..8............x
     dca:	fc ce 86 86 ce fc f8 00 00 00 0c 19 19 19 1c 0f     ................
     dda:	03 00 00 00 00 00 e0 e0 00 00 00 00 00 00 00 00     ................
     dea:	1c 1c 00 00 00 00 00 00 00 00 e0 e0 00 00 00 00     ................
     dfa:	00 00 00 40 7c 3c 00 00 00 00 00 80 80 c0 40 60     ...@|<........@`
     e0a:	60 20 30 00 00 01 01 03 02 06 06 04 0c 00 00 60     ` 0............`
     e1a:	60 60 60 60 60 60 60 00 00 06 06 06 06 06 06 06     ```````.........
     e2a:	06 00 00 30 20 60 60 40 c0 80 80 00 00 0c 04 06     ...0 ``@........
     e3a:	06 02 03 01 01 00 00 0c 06 86 c6 66 7e 1c 00 00     ...........f~...
     e4a:	00 00 00 1b 1b 00 00 00 00 00 e0 f0 38 9c cc cc     ............8...
     e5a:	dc f8 f0 00 07 1f 38 73 67 66 66 77 27 00 00 00     ......8sgffw'...
     e6a:	c0 fc 3e 3e fc c0 00 00 00 18 1f 0f 03 03 0f 1f     ..>>............
     e7a:	18 00 00 fe fe c6 c6 c6 c6 fc 3c 00 00 1f 1f 18     ..........<.....
     e8a:	18 18 18 1f 0f 00 00 f0 fc 0c 06 06 06 06 0c 00     ................
     e9a:	00 03 0f 0c 18 18 18 18 0c 00 00 fe fe 06 06 06     ................
     eaa:	0c fc f0 00 00 1f 1f 18 18 18 0c 0f 03 00 00 fe     ................
     eba:	fe c6 c6 c6 c6 c6 06 00 00 1f 1f 18 18 18 18 18     ................
     eca:	18 00 00 fe fe c6 c6 c6 c6 c6 06 00 00 1f 1f 00     ................
     eda:	00 00 00 00 00 00 00 f0 fc 0c 06 86 86 86 8c 00     ................
     eea:	00 03 0f 0c 18 19 19 1f 0f 00 00 fe fe c0 c0 c0     ................
     efa:	c0 fe fe 00 00 1f 1f 00 00 00 00 1f 1f 00 00 00     ................
     f0a:	06 06 fe fe 06 06 00 00 00 00 18 18 1f 1f 18 18     ................
     f1a:	00 00 00 00 00 00 06 06 06 fe fe 00 00 0c 18 18     ................
     f2a:	18 18 18 0f 0f 00 00 fe fe e0 f0 fc 0e 06 02 00     ................
     f3a:	00 1f 1f 00 00 03 0f 1e 18 00 00 fe fe 00 00 00     ................
     f4a:	00 00 00 00 00 1f 1f 18 18 18 18 18 18 00 00 fe     ................
     f5a:	fe 3e f0 f0 3e fe fe 00 00 1f 1f 00 01 01 00 1f     .>..>...........
     f6a:	1f 00 00 fe fe 1e f0 c0 00 fe fe 00 00 1f 1f 00     ................
     f7a:	00 03 1e 1f 1f 00 00 f0 fc 0e 06 06 0e fc f0 00     ................
     f8a:	00 03 0f 1c 18 18 1c 0f 03 00 00 fe fe c6 c6 c6     ................
     f9a:	c6 7c 7c 00 00 1f 1f 00 00 00 00 00 00 00 00 f0     .||.............
     faa:	fc 0e 06 06 0e fc f0 00 00 03 0f 1c 18 18 3c 6f     ..............<o
     fba:	07 00 00 fe fe c6 c6 c6 c6 fc 3c 00 00 1f 1f 00     ..........<.....
     fca:	00 01 03 1f 1e 10 00 38 7c e6 c6 c6 c6 8c 00 00     .......8|.......
     fda:	00 0c 18 18 18 18 19 0f 0f 00 00 06 06 06 fe fe     ................
     fea:	06 06 06 00 00 00 00 00 1f 1f 00 00 00 00 00 fe     ................
     ffa:	fe 00 00 00 00 fe fe 00 00 07 0f 1c 18 18 1c 0f     ................
    100a:	07 00 00 06 fe fc 00 00 fc fe 06 00 00 00 00 1f     ................
    101a:	1f 1f 1f 00 00 00 1e fe e0 00 f0 f0 00 e0 fe 1e     ................
    102a:	00 1f 1f 1e 01 01 1e 1f 1f 00 00 02 0e 3e f8 f8     .............>..
    103a:	3e 0e 02 00 00 10 1c 1f 03 03 1f 1c 10 00 02 0e     >...............
    104a:	3e 78 e0 e0 78 3e 0e 02 00 00 00 00 1f 1f 00 00     >x..x>..........
    105a:	00 00 00 06 06 86 c6 f6 7e 1e 0e 00 00 1c 1e 1f     ........~.......
    106a:	1b 18 18 18 18 00 00 00 00 fe fe 02 02 00 00 00     ................
    107a:	00 00 00 7f 7f 40 40 00 00 00 00 02 0e 38 e0 80     .....@@......8..
	...
    1092:	00 03 0e 38 20 00 00 00 02 02 fe fe 00 00 00 00     ...8 ...........
    10a2:	00 00 40 40 7f 7f 00 00 00 00 10 18 1c 0e 06 0e     ..@@............
    10b2:	1c 18 10 00 00 00 00 00 00 00 00 00 00 00 00 00     ................
	...
    10ca:	40 40 40 40 40 40 40 40 40 40 00 00 01 03 06 04     @@@@@@@@@@......
	...
    10ea:	60 30 b0 b0 b0 f0 e0 00 00 0e 1f 1b 19 19 0d 1f     `0..............
    10fa:	1f 00 00 fe fe 60 30 30 70 e0 c0 00 00 1f 1f 0c     .....`00p.......
    110a:	18 18 1c 0f 07 00 00 c0 e0 70 30 30 30 30 60 00     .........p0000`.
    111a:	00 07 0f 1c 18 18 18 18 0c 00 00 c0 e0 70 30 30     .............p00
    112a:	60 fe fe 00 00 07 0f 1c 18 18 0c 1f 1f 00 00 c0     `...............
    113a:	e0 b0 b0 b0 b0 e0 c0 00 00 07 0f 1d 19 19 19 19     ................
    114a:	0d 00 00 30 30 fc fe 36 36 36 00 00 00 00 00 1f     ...00..666......
    115a:	1f 00 00 00 00 00 00 c0 e0 70 30 30 60 f0 f0 00     .........p00`...
    116a:	00 03 37 6e 6c 6c 66 7f 3f 00 00 fe fe 60 30 30     ..7nllf.?....`00
    117a:	30 f0 e0 00 00 1f 1f 00 00 00 00 1f 1f 00 00 00     0...............
    118a:	30 30 f7 f7 00 00 00 00 00 18 18 18 1f 1f 18 18     00..............
    119a:	18 00 00 00 30 30 f7 f7 00 00 00 00 00 60 60 60     ....00.......```
    11aa:	7f 3f 00 00 00 00 00 fe fe 80 e0 70 30 10 00 00     .?.........p0...
    11ba:	00 1f 1f 01 03 07 1e 18 10 00 00 06 06 fe fe 00     ................
    11ca:	00 00 00 00 00 00 00 0f 1f 18 18 18 00 00 00 f0     ................
    11da:	f0 30 f0 e0 30 f0 e0 00 00 1f 1f 00 1f 1f 00 1f     .0..0...........
    11ea:	1f 00 00 f0 f0 60 30 30 30 f0 e0 00 00 1f 1f 00     .....`000.......
    11fa:	00 00 00 1f 1f 00 00 c0 e0 70 30 30 70 e0 c0 00     .........p00p...
    120a:	00 07 0f 1c 18 18 1c 0f 07 00 00 f0 f0 60 30 30     .............`00
    121a:	70 e0 c0 00 00 7f 7f 06 0c 0c 0e 07 03 00 00 c0     p...............
    122a:	e0 70 30 30 60 f0 f0 00 00 03 07 0e 0c 0c 06 7f     .p00`...........
    123a:	7f 00 00 00 f0 f0 60 30 30 30 30 00 00 00 1f 1f     ......`0000.....
    124a:	00 00 00 00 00 00 00 e0 f0 b0 b0 b0 b0 30 60 00     .............0`.
    125a:	00 0c 19 19 19 19 1b 1f 0e 00 00 30 30 fc fc 30     ...........00..0
    126a:	30 30 00 00 00 00 00 0f 1f 18 18 18 00 00 00 f0     00..............
    127a:	f0 00 00 00 00 f0 f0 00 00 0f 1f 18 18 18 0c 1f     ................
    128a:	1f 00 00 30 f0 e0 00 00 e0 f0 30 00 00 00 01 0f     ...0......0.....
    129a:	1e 1e 0f 01 00 00 70 f0 00 00 c0 c0 00 00 f0 70     ......p........p
    12aa:	00 07 1f 1e 03 03 1e 1f 07 00 00 10 30 f0 c0 c0     ............0...
    12ba:	f0 30 10 00 00 10 18 1e 07 07 1e 18 10 00 00 10     .0..............
    12ca:	f0 f0 80 00 f0 f0 30 00 00 00 60 63 7f 1f 0f 01     ......0...`c....
    12da:	00 00 00 30 30 30 30 b0 f0 70 30 00 00 18 1c 1e     ...0000..p0.....
    12ea:	1b 19 18 18 18 00 00 00 00 00 fc fe 02 02 00 00     ................
    12fa:	00 00 01 01 3e 7e 40 40 00 00 00 00 00 00 fe fe     ....>~@@........
	...
    1312:	7f 7f 00 00 00 00 00 00 02 02 fe fc 00 00 00 00     ................
    1322:	00 00 40 40 7e 3e 01 01 00 00 00 80 c0 c0 c0 80     ..@@~>..........
    1332:	80 80 c0 00 00 01 00 00 00 01 01 01 00 00           ..............

00001340 <_ZL16Verdana12_italic>:
    1340:	1b d2 0a 0c 20 60 03 03 04 07 07 0b 08 02 04 04     .... `..........
    1350:	05 07 02 03 01 05 07 05 07 07 07 07 07 06 07 07     ................
    1360:	02 03 07 07 07 05 0a 07 07 07 08 08 07 08 09 05     ................
    1370:	05 08 06 0a 09 07 07 07 07 08 06 08 07 0b 08 06     ................
    1380:	08 05 03 05 07 07 02 06 06 06 07 06 04 06 07 03     ................
    1390:	03 06 03 0b 07 06 06 06 05 06 04 07 05 08 07 05     ................
    13a0:	06 06 01 06 07 09 00 00 00 00 00 00 00 f0 0e 20     ............... 
    13b0:	00 00 06 01 06 01 00 00 00 00 40 c8 78 ce 78 4e     ..........@.x.xN
    13c0:	08 00 10 00 10 00 00 00 00 18 24 fc 47 84 08 10     ..........$.G...
    13d0:	20 e0 30 20 10 00 18 24 22 92 4c 20 90 48 24 22      .0 ...$".L .H$"
    13e0:	c0 00 20 10 00 00 00 10 20 20 10 00 c0 3c 22 22     .. .....  ...<""
    13f0:	52 8c 40 20 10 20 20 20 10 00 10 20 06 01 00 00     R.@ .   ... ....
    1400:	e0 18 06 01 70 80 00 00 00 00 81 7e 80 60 10 00     ....p......~.`..
    1410:	0a 04 1f 04 0a 00 00 00 00 00 40 40 40 f8 40 40     ..........@@@.@@
    1420:	40 00 00 00 30 00 00 00 00 00 80 70 40 40 40 00     @...0......p@@@.
    1430:	00 00 00 30 00 80 60 18 04 20 10 00 00 00 e0 18     ...0..`.. ......
    1440:	04 02 02 c2 3c 10 20 20 20 10 00 00 00 00 84 74     ....<.   ......t
    1450:	0e 20 20 30 20 20 00 84 42 42 22 22 1c 30 20 20     .  0  ..BB"".0  
    1460:	20 20 20 00 00 00 04 22 22 d2 0c 10 20 20 20 20        ....""...    
    1470:	10 00 40 60 50 48 c4 72 4e 00 00 00 00 30 00 00     ..@`PH.rN....0..
    1480:	00 18 16 12 12 e2 02 10 20 20 20 10 00 00 f0 28     ........   ....(
    1490:	14 14 12 12 e2 10 20 20 20 20 10 00 02 82 42 32     ......    ....B2
    14a0:	0a 06 20 10 00 00 00 00 80 58 24 22 22 d2 0c 10     .. ......X$""...
    14b0:	20 20 20 10 00 00 38 44 42 42 42 a2 7c 20 20 20        ...8DBBB.|   
    14c0:	20 10 00 00 00 18 30 00 00 00 18 80 70 00 40 a0      .....0.....p.@.
    14d0:	a0 10 10 08 08 00 00 00 10 10 20 20 50 50 50 50     ..........  PPPP
    14e0:	50 50 50 00 00 00 00 00 00 00 08 08 10 10 a0 a0     PPP.............
    14f0:	40 20 20 10 10 00 00 00 04 c2 22 22 1c 20 00 00     @  ......."". ..
    1500:	00 00 e0 18 e4 14 0a 0a ca 3a 84 78 10 20 40 50     .........:.x. @P
    1510:	50 50 10 10 00 00 00 c0 60 58 44 42 fe 30 00 00     PP......`XDB.0..
    1520:	00 00 00 30 80 70 2e 22 22 32 cc 30 20 20 20 20     ...0.p.""2.0    
    1530:	10 00 f0 08 04 02 02 02 04 00 10 20 20 20 10 00     ...........   ..
    1540:	80 70 0e 02 02 02 84 78 30 20 20 20 20 10 00 00     .p.....x0    ...
    1550:	80 70 2e 22 22 22 22 02 30 20 20 20 20 20 00 00     .p."""".0     ..
    1560:	80 70 2e 22 22 22 22 30 00 00 00 00 00 00 f0 08     .p.""""0........
    1570:	04 02 42 42 c2 04 00 10 20 20 20 30 00 00 80 70     ..BB....   0...p
    1580:	2e 20 20 20 a0 70 0e 30 00 00 00 00 00 30 00 00     .   .p.0.....0..
    1590:	00 80 72 0e 02 20 30 20 00 00 00 00 82 72 0e 20     ..r.. 0 .....r. 
    15a0:	20 10 00 00 80 70 2e 60 90 08 04 02 30 00 00 00      ....p.`....0...
    15b0:	00 10 20 00 80 70 0e 00 00 00 30 20 20 20 20 20     .. ..p....0     
    15c0:	80 70 0e 18 e0 40 30 88 74 0e 30 00 00 00 00 00     .p...@0.t.0.....
    15d0:	00 30 00 00 80 70 0e 18 20 c0 80 70 0e 30 00 00     .0...p.. ..p.0..
    15e0:	00 00 00 30 00 00 f0 08 04 02 02 84 78 00 10 20     ...0........x.. 
    15f0:	20 10 00 00 80 70 4e 42 42 22 1c 30 00 00 00 00      ....pNBB".0....
    1600:	00 00 f0 08 04 02 02 84 78 00 10 20 20 50 80 80     ........x..  P..
    1610:	80 70 4e 42 c2 22 1c 30 00 00 00 00 10 20 00 18     .pNB.".0..... ..
    1620:	24 22 22 22 c2 04 10 20 20 20 20 10 00 00 02 82     $"""...    .....
    1630:	72 0e 02 02 00 30 00 00 00 00 e0 1e 00 00 00 80     r....0..........
    1640:	70 0e 10 20 20 20 20 10 00 00 fe 00 80 40 30 08     p..    ......@0.
    1650:	06 30 20 10 00 00 00 00 fe 00 c0 30 0c fe 00 c0     .0 ........0....
    1660:	30 0c 02 30 10 00 00 00 30 10 00 00 00 00 00 02     0..0....0.......
    1670:	8c 70 70 88 04 02 20 10 00 00 00 10 20 00 02 9c     .pp... ..... ...
    1680:	60 10 08 04 00 30 00 00 00 00 00 80 42 22 12 0a     `....0......B"..
    1690:	06 02 30 20 20 20 20 20 00 00 00 c0 38 07 01 e0     ..0     ....8...
    16a0:	90 80 00 00 0f f0 00 00 00 f0 00 00 c1 39 07 80     .............9..
    16b0:	e0 10 00 00 10 08 04 02 04 08 10 00 00 00 00 00     ................
	...
    16c8:	00 80 80 80 80 80 80 80 01 02 00 00 80 48 48 48     .............HHH
    16d8:	c8 70 10 20 20 20 30 00 80 78 0f 08 08 f0 30 20     .p.   0..x....0 
    16e8:	20 20 10 00 e0 10 08 08 08 10 10 20 20 20 10 00       .........   ..
    16f8:	e0 10 08 08 88 78 07 10 20 20 20 30 00 00 e0 50     .....x..   0...P
    1708:	48 48 48 70 10 20 20 20 10 00 88 78 0e 09 30 00     HHHp.   ...x..0.
    1718:	00 00 e0 10 08 08 88 78 90 a0 a0 a0 70 00 80 78     .......x....p..x
    1728:	17 08 08 88 70 30 00 00 00 00 30 00 80 78 02 30     ....p0....0..x.0
    1738:	00 00 00 88 7a 80 70 00 80 78 47 a0 10 08 30 00     ....z.p..xG...0.
    1748:	00 10 20 00 80 78 07 30 00 00 80 78 10 08 08 c8     .. ..x.0...x....
    1758:	30 08 08 88 70 30 00 00 00 20 10 00 00 00 30 00     0...p0... ....0.
    1768:	80 78 10 08 08 88 70 30 00 00 00 00 30 00 e0 10     .x....p0....0...
    1778:	08 08 08 f0 10 20 20 20 10 00 80 78 08 08 08 f0     .....   ...x....
    1788:	30 20 20 20 10 00 e0 10 08 08 88 78 10 20 20 e0     0   .......x.  .
    1798:	30 00 80 78 10 08 08 30 00 00 00 00 00 30 48 48     0..x...0.....0HH
    17a8:	88 10 10 20 20 20 10 00 c8 38 0e 08 10 20 20 00     ...   ...8...  .
    17b8:	c0 38 00 00 00 c0 38 10 20 20 20 10 30 00 78 80     .8....8.   .0.x.
    17c8:	80 60 18 00 30 10 00 00 f8 00 c0 20 f8 00 e0 18     .`..0...... ....
    17d8:	00 30 00 00 00 30 00 00 00 08 b0 40 a0 10 08 20     .0...0.....@... 
    17e8:	10 00 00 10 20 00 78 80 80 60 18 80 70 10 00 00     .... .x..`..p...
    17f8:	00 88 48 28 18 08 30 20 20 20 20 00 20 20 dc 03     ..H(..0    .  ..
    1808:	01 01 00 70 80 80 00 00 ff f0 00 00 01 d9 26 20     ...p..........& 
    1818:	80 80 60 10 00 00 c0 20 20 40 80 80 60 00 00 00     ..`....  @..`...
    1828:	00 00 00 00 fe 02 02 02 02 02 02 02 fe 30 20 20     .............0  
    1838:	20 20 20 20 20 30                                        0

0000183e <_ZL14Verdana12_bold>:
    183e:	1c 62 0a 0c 20 60 02 02 05 08 07 0d 08 02 04 04     .b.. `..........
    184e:	05 07 02 04 02 06 07 06 07 07 07 07 07 07 07 07     ................
    185e:	02 02 07 07 07 05 0a 07 07 07 08 06 06 08 08 04     ................
    186e:	06 07 07 09 08 09 07 09 08 07 08 08 07 0c 07 08     ................
    187e:	06 04 06 04 08 09 03 06 06 06 06 06 05 06 06 02     ................
    188e:	04 07 02 0a 06 06 06 06 05 05 05 06 06 0a 06 06     ................
    189e:	05 06 02 06 08 09 00 00 00 00 7e 7e 30 30 07 07     ..........~~00..
    18ae:	00 07 07 00 00 00 00 00 c0 d8 f8 de d8 f8 de 18     ................
    18be:	00 30 00 00 30 00 00 00 38 7c 64 ff 64 e4 c8 10     .0..0...8|d.d...
    18ce:	20 20 f0 20 30 10 3c 7e 42 7e 3c c0 20 18 e6 f0       . 0.<~B~<. ...
    18de:	10 f0 e0 00 00 00 00 30 00 00 00 10 30 20 30 10     .......0....0 0.
    18ee:	dc fe 22 7e dc 80 60 20 10 30 20 20 20 10 30 20     .."~..` .0   .0 
    18fe:	07 07 00 00 f8 fe 07 01 10 70 e0 80 01 07 fe f8     .........p......
    190e:	80 e0 70 10 12 0c 3f 0c 12 00 00 00 00 00 20 20     ..p...?.......  
    191e:	20 fc 20 20 20 00 00 00 10 00 00 00 00 00 f0 70      .   ..........p
    192e:	20 20 20 20 00 00 00 00 00 00 30 30 00 80 e0 7c         ......00...|
    193e:	1f 03 c0 f0 30 00 00 00 fc fe 02 02 02 fe fc 10     ....0...........
    194e:	30 20 20 20 30 10 04 04 fe fe 00 00 20 20 30 30     0   0.......  00
    195e:	20 20 04 06 82 c2 62 3e 1c 20 30 30 20 20 20 20       ....b>. 00    
    196e:	04 06 22 22 22 fe dc 10 30 20 20 20 30 10 c0 a0     .."""...0   0...
    197e:	98 84 fe fe 80 00 00 00 00 30 30 00 00 1e 1e 12     .........00.....
    198e:	12 f2 e2 10 30 20 20 20 30 10 f8 fc 16 12 12 f2     ....0   0.......
    199e:	e0 10 30 20 20 20 30 10 02 02 82 e2 7a 1e 06 00     ..0   0.....z...
    19ae:	20 30 10 00 00 00 dc fe 22 22 22 fe dc 10 30 20      0......"""...0 
    19be:	20 20 30 10 3c 7e 42 42 42 fe fc 00 20 20 20 30       0.<~BBB...   0
    19ce:	10 00 18 18 30 30 18 18 f0 70 60 60 90 90 08 08     ....00...p``....
    19de:	04 00 00 00 00 10 10 20 90 90 90 90 90 90 90 00     ....... ........
    19ee:	00 00 00 00 00 00 04 08 08 90 90 60 60 20 10 10     ...........`` ..
    19fe:	00 00 00 00 04 62 72 1e 0c 00 30 30 00 00 f0 0c     .....br...00....
    1a0e:	f4 fa 0a fa fa 04 0c f0 00 30 20 50 50 50 50 10     .........0 PPPP.
    1a1e:	10 00 80 f8 fe 86 fe f8 80 30 30 00 00 00 30 30     .........00...00
    1a2e:	fe fe 22 22 3e fc c0 30 30 20 20 20 30 10 f8 fc     .."">..00   0...
    1a3e:	06 02 02 02 04 00 10 30 20 20 20 10 fe fe 02 02     .......0   .....
    1a4e:	02 06 fc f8 30 30 20 20 20 30 10 00 fe fe 22 22     ....00   0....""
    1a5e:	22 22 30 30 20 20 20 20 fe fe 22 22 22 22 30 30     ""00    ..""""00
    1a6e:	00 00 00 00 f8 fc 06 02 42 42 c2 c4 00 10 30 20     ........BB....0 
    1a7e:	20 20 30 30 fe fe 20 20 20 20 fe fe 30 30 00 00       00..    ..00..
    1a8e:	00 00 30 30 02 fe fe 02 20 30 30 20 00 02 02 02     ..00.... 00 ....
    1a9e:	fe fe 20 20 20 20 30 10 fe fe 70 d8 8c 06 02 30     ..    0...p....0
    1aae:	30 00 00 10 30 20 fe fe 00 00 00 00 00 30 30 20     0...0 .......00 
    1abe:	20 20 20 20 fe 0e 3c f0 c0 30 0c fe fe 30 00 00         ..<..0...0..
    1ace:	00 00 00 00 30 30 fe 06 1c 38 e0 c0 00 fe 30 00     ....00...8....0.
    1ade:	00 00 00 10 30 30 f8 fc 06 02 02 02 06 fc f8 00     ....00..........
    1aee:	10 30 20 20 20 30 10 00 fe fe 42 42 42 7e 3c 30     .0   0....BBB~<0
    1afe:	30 00 00 00 00 00 f8 fc 06 02 02 02 06 fc f8 00     0...............
    1b0e:	10 30 20 60 e0 b0 90 80 fe fe 22 62 e2 be 1c 00     .0 `......"b....
    1b1e:	30 30 00 00 00 10 30 20 1c 3e 32 22 62 e2 c4 10     00....0 .>2"b...
    1b2e:	20 20 20 20 30 10 02 02 02 fe fe 02 02 02 00 00         0...........
    1b3e:	00 30 30 00 00 00 fe fe 00 00 00 00 fe fe 10 30     .00............0
    1b4e:	20 20 20 20 30 10 0e 7e f0 80 f0 7e 0e 00 00 30         0..~...~...0
    1b5e:	30 30 00 00 0e 7e f0 80 e0 3e 3e e0 80 f0 7e 0e     00...~...>>...~.
    1b6e:	00 00 30 30 00 00 00 00 30 30 00 00 06 8e f8 70     ..00....00.....p
    1b7e:	f8 8e 06 30 30 00 00 00 30 30 06 0e 18 f0 f0 18     ...00...00......
    1b8e:	0e 06 00 00 00 30 30 00 00 00 02 c2 f2 3e 0e 02     .....00......>..
    1b9e:	30 30 20 20 20 20 ff ff 01 01 f0 f0 80 80 03 1f     00    ..........
    1bae:	7c e0 80 00 00 00 00 30 f0 c0 01 01 ff ff 80 80     |......0........
    1bbe:	f0 f0 10 18 0c 06 06 0c 18 10 00 00 00 00 00 00     ................
	...
    1bd6:	00 00 00 80 80 80 80 80 80 80 80 80 01 03 02 00     ................
    1be6:	00 00 c0 e8 28 28 f8 f0 10 30 20 20 30 30 ff ff     ....((...0  00..
    1bf6:	08 08 f8 f0 30 30 20 20 30 10 f0 f8 08 08 08 10     ....00  0.......
    1c06:	10 30 20 20 20 10 f0 f8 08 08 ff ff 10 30 20 20     .0   ........0  
    1c16:	30 30 f0 f8 48 48 78 70 10 30 20 20 20 10 08 fe     00..HHxp.0   ...
    1c26:	ff 09 09 00 30 30 00 00 f0 f8 08 08 f8 f8 10 b0     ....00..........
    1c36:	a0 a0 f0 70 ff ff 08 08 f8 f0 30 30 00 00 30 30     ...p......00..00
    1c46:	fb fb 30 30 00 08 fb fb 80 80 f0 70 ff ff 60 f0     ..00.......p..`.
    1c56:	98 08 00 30 30 00 00 10 30 20 ff ff 30 30 f8 f8     ...00...0 ..00..
    1c66:	10 08 f8 f0 10 08 f8 f0 30 30 00 00 30 30 00 00     ........00..00..
    1c76:	30 30 f8 f8 08 08 f8 f0 30 30 00 00 30 30 f0 f8     00......00..00..
    1c86:	08 08 f8 f0 10 30 20 20 30 10 f8 f8 08 08 f8 f0     .....0  0.......
    1c96:	f0 f0 20 20 30 10 f0 f8 08 08 f8 f8 10 30 20 20     ..  0........0  
    1ca6:	f0 f0 f8 f8 10 18 18 30 30 00 00 00 30 78 48 c8     .......00...0xH.
    1cb6:	88 20 20 20 30 10 08 fe fe 08 08 00 10 30 20 20     .   0........0  
    1cc6:	f8 f8 00 00 f8 f8 10 30 20 20 30 30 38 f8 c0 c0     .......0  008...
    1cd6:	f8 38 00 10 30 30 10 00 78 f8 80 c0 38 38 c0 80     .8..00..x...88..
    1ce6:	f8 78 00 30 30 00 00 00 00 30 30 00 18 b8 e0 e0     .x.00....00.....
    1cf6:	b8 18 30 30 00 00 30 30 38 f8 c0 c0 f8 38 00 90     ..00..008....8..
    1d06:	f0 70 10 00 08 c8 e8 78 18 30 30 20 20 20 20 20     .p.....x.00     
    1d16:	fe df 01 01 00 00 70 f0 80 80 ff ff f0 f0 01 01     ......p.........
    1d26:	df fe 20 20 80 80 f0 70 00 00 e0 10 10 20 40 80     ..  ...p..... @.
    1d36:	80 70 00 00 00 00 00 00 00 00 fe 02 02 02 02 02     .p..............
    1d46:	02 02 fe 30 20 20 20 20 20 20 20 30                 ...0       0

00001d52 <_ZL9Verdana12>:
    1d52:	19 92 0a 0c 20 60 02 01 04 08 06 0b 08 01 03 03     .... `..........
    1d62:	05 07 02 04 01 05 06 05 06 06 07 06 06 06 06 06     ................
    1d72:	01 02 07 07 07 05 0a 08 06 07 07 06 06 07 07 03     ................
    1d82:	04 06 06 08 07 08 06 08 07 06 07 07 08 0b 06 07     ................
    1d92:	06 03 05 03 08 08 02 06 06 05 06 06 04 06 06 01     ................
    1da2:	03 05 01 09 06 06 06 06 04 05 05 06 05 09 05 05     ................
    1db2:	05 05 01 05 08 09 00 00 00 00 fe 20 07 00 00 07     ........... ....
    1dc2:	00 00 00 00 80 90 f8 96 90 f8 96 10 00 30 00 00     .............0..
    1dd2:	30 00 00 00 18 24 ff 44 44 84 20 20 f0 20 20 10     0....$.DD.  .  .
    1de2:	1c 22 22 1c 80 70 0c c2 20 20 c0 00 00 00 20 10     .""..p..  .... .
    1df2:	00 00 10 20 20 10 dc 22 22 22 5c 80 60 00 10 20     ...  .."""\.`.. 
    1e02:	20 20 20 10 10 20 07 00 f8 06 01 10 60 80 01 06        .. ......`...
    1e12:	f8 80 60 10 0a 04 1f 04 0a 00 00 00 00 00 40 40     ..`...........@@
    1e22:	40 f8 40 40 40 00 00 00 30 00 00 00 00 00 80 70     @.@@@...0......p
    1e32:	40 40 40 40 00 00 00 00 00 30 00 00 e0 1c 03 80     @@@@.....0......
    1e42:	70 00 00 00 fc 02 02 02 02 fc 10 20 20 20 20 10     p..........    .
    1e52:	04 04 fe 00 00 20 20 30 20 20 0c 82 42 42 22 1c     .....  0  ..BB".
    1e62:	30 20 20 20 20 20 04 02 22 22 22 dc 10 20 20 20     0     .."""..   
    1e72:	20 10 60 50 48 44 fe 40 40 00 00 00 00 30 00 00      .`PHD.@@....0..
    1e82:	1e 12 12 12 12 e2 10 20 20 20 20 10 f8 14 12 12     .......    .....
    1e92:	12 e0 10 20 20 20 20 10 02 02 82 62 1a 06 00 20     ...    ....b... 
    1ea2:	10 00 00 00 dc 22 22 22 22 dc 10 20 20 20 20 10     .....""""..    .
    1eb2:	3c 42 42 42 42 fc 00 20 20 20 10 00 18 30 00 18     <BBBB..   ...0..
    1ec2:	80 70 40 a0 a0 10 10 08 08 00 00 00 10 10 20 20     .p@...........  
    1ed2:	50 50 50 50 50 50 50 00 00 00 00 00 00 00 08 08     PPPPPPP.........
    1ee2:	10 10 a0 a0 40 20 20 10 10 00 00 00 04 02 e2 22     ....@  ........"
    1ef2:	1c 00 00 20 00 00 f0 0c 04 f2 0a 0a fa 04 0c f0     ... ............
    1f02:	00 30 20 40 50 50 50 10 10 00 00 e0 98 86 86 98     .0 @PPP.........
    1f12:	e0 00 30 00 00 00 00 00 00 30 fe 22 22 22 3c c0     ..0......0."""<.
    1f22:	30 20 20 20 20 10 f8 04 02 02 02 02 04 00 10 20     0    .......... 
    1f32:	20 20 20 10 fe 02 02 02 02 04 f8 30 20 20 20 20        ........0    
    1f42:	10 00 fe 22 22 22 22 22 30 20 20 20 20 20 fe 22     ..."""""0     ."
    1f52:	22 22 22 02 30 00 00 00 00 00 f8 04 02 02 22 22     """.0.........""
    1f62:	e4 00 10 20 20 20 20 10 fe 20 20 20 20 20 fe 30     ...    ..     .0
    1f72:	00 00 00 00 00 30 02 fe 02 20 30 20 00 02 02 fe     .....0... 0 ....
    1f82:	20 20 20 10 fe 20 50 88 04 02 30 00 00 00 10 20        .. P...0.... 
    1f92:	fe 00 00 00 00 00 30 20 20 20 20 20 fe 06 38 c0     ......0     ..8.
    1fa2:	c0 38 06 fe 30 00 00 00 00 00 00 30 fe 06 18 20     .8..0......0... 
    1fb2:	c0 00 fe 30 00 00 00 00 30 30 f8 04 02 02 02 02     ...0....00......
    1fc2:	04 f8 00 10 20 20 20 20 10 00 fe 42 42 42 42 3c     ....    ...BBBB<
    1fd2:	30 00 00 00 00 00 f8 04 02 02 02 02 04 f8 00 10     0...............
    1fe2:	20 20 20 60 90 80 fe 22 22 62 a2 1c 00 30 00 00        `...""b...0..
    1ff2:	00 00 10 20 1c 22 22 22 22 c4 10 20 20 20 20 10     ... .""""..    .
    2002:	02 02 02 fe 02 02 02 00 00 00 30 00 00 00 fe 00     ..........0.....
    2012:	00 00 00 00 fe 00 10 20 20 20 10 00 06 38 c0 00     .......   ...8..
    2022:	00 c0 38 06 00 00 00 30 30 00 00 00 1e e0 00 c0     ..8....00.......
    2032:	38 06 38 c0 00 e0 1e 00 00 30 00 00 00 00 00 30     8.8......0.....0
    2042:	00 00 06 88 70 70 88 06 30 00 00 00 00 30 02 0c     ....pp..0....0..
    2052:	10 e0 10 0c 02 00 00 00 30 00 00 00 02 82 62 12     ........0.....b.
    2062:	0a 06 30 20 20 20 20 20 ff 01 01 f0 80 80 03 1c     ..0     ........
    2072:	60 80 00 00 00 00 30 c0 01 01 ff 80 80 f0 10 08     `.....0.........
    2082:	04 02 02 04 08 10 00 00 00 00 00 00 00 00 00 00     ................
    2092:	00 00 00 00 00 00 80 80 80 80 80 80 80 80 01 02     ................
    20a2:	00 00 80 48 48 48 48 f0 10 20 20 20 20 30 ff 10     ...HHHH..    0..
    20b2:	08 08 08 f0 30 20 20 20 20 10 f0 08 08 08 10 10     ....0    .......
    20c2:	20 20 20 10 f0 08 08 08 08 ff 10 20 20 20 10 30        ........   .0
    20d2:	f0 48 48 48 48 70 10 20 20 20 20 10 08 fe 09 09     .HHHHp.    .....
    20e2:	00 30 00 00 f0 08 08 08 08 f8 10 a0 a0 a0 90 70     .0.............p
    20f2:	ff 10 08 08 08 f0 30 00 00 00 00 30 f9 30 00 08     ......0....0.0..
    2102:	f9 80 80 70 ff 40 a0 10 08 30 00 00 10 20 ff 30     ...p.@...0... .0
    2112:	f8 08 08 08 f0 08 08 08 f0 30 00 00 00 30 00 00     .........0...0..
    2122:	00 30 f8 10 08 08 08 f0 30 00 00 00 00 30 f0 08     .0......0....0..
    2132:	08 08 08 f0 10 20 20 20 20 10 f8 10 08 08 08 f0     .....    .......
    2142:	f0 20 20 20 20 10 f0 08 08 08 08 f8 10 20 20 20     .    ........   
    2152:	10 f0 f8 10 08 08 30 00 00 00 30 48 48 48 88 20     ......0...0HHH. 
    2162:	20 20 20 10 08 fe 08 08 08 00 10 20 20 20 f8 00        ........   ..
    2172:	00 00 00 f8 10 20 20 20 10 30 18 e0 00 e0 18 00     .....   .0......
    2182:	00 30 00 00 18 e0 00 e0 18 e0 00 e0 18 00 00 30     .0.............0
    2192:	00 00 00 30 00 00 18 a0 40 a0 18 30 00 00 00 30     ...0....@..0...0
    21a2:	18 e0 00 e0 18 00 80 70 00 00 08 88 48 28 18 30     .......p....H(.0
    21b2:	20 20 20 20 20 20 de 01 01 00 00 70 80 80 ff f0           .....p....
    21c2:	01 01 de 20 20 80 80 70 00 00 c0 20 20 40 40 80     ...  ..p...  @@.
    21d2:	80 60 00 00 00 00 00 00 00 00 fe 02 02 02 02 02     .`..............
    21e2:	02 02 fe 30 20 20 20 20 20 20 20 30                 ...0       0

000021ee <_ZL22TimesNewRoman16_italic>:
    21ee:	2a f6 0a 10 20 60 03 03 05 07 07 0c 0b 01 04 04     *... `..........
    21fe:	06 09 02 04 02 04 07 05 07 06 06 07 07 07 07 07     ................
    220e:	04 05 09 09 09 06 0e 09 09 0a 0b 0a 0a 0b 0b 05     ................
    221e:	07 0b 08 0d 0b 0a 0a 0a 09 08 08 0a 08 0b 0a 07     ................
    222e:	09 07 02 07 07 08 02 07 07 06 08 06 05 08 07 03     ................
    223e:	04 08 04 0b 07 07 07 07 06 06 04 07 07 0a 07 07     ................
    224e:	06 05 01 05 08 08 00 00 00 00 00 00 00 c0 3e 08     ..............>.
    225e:	03 00 3c 06 00 3c 06 00 00 00 00 00 20 e0 38 26     ..<..<...... .8&
    226e:	20 e0 38 0d 03 01 01 0d 03 01 00 1c 32 e2 5e 83      .8.........2.^.
    227e:	0c 06 08 1e 09 0c 07 00 38 44 42 22 1c c0 60 10     ........8DB"..`.
    228e:	88 44 42 80 00 08 04 02 01 00 00 07 08 08 04 03     .DB.............
    229e:	80 80 40 40 fc a2 12 0e 40 c0 40 07 0c 08 08 08     ..@@....@.@.....
    22ae:	0b 06 0d 09 08 04 3c 00 80 e0 30 08 3f 40 00 00     ......<...0.?@..
    22be:	00 00 06 f8 10 08 07 01 24 24 18 7e 18 24 00 00     ........$$.~.$..
    22ce:	00 00 00 00 40 40 40 40 fc 40 40 40 40 00 00 00     ....@@@@.@@@@...
    22de:	00 07 00 00 00 00 00 00 14 0c 00 00 00 00 01 01     ................
    22ee:	01 01 00 00 0c 0c 00 80 70 0c 06 01 00 00 e0 18     ........p.......
    22fe:	04 02 02 02 fc 07 08 08 08 04 03 00 00 00 80 72     ...............r
    230e:	0e 08 0c 0b 08 00 00 00 04 02 82 62 1c 08 0c 0a     ...........b....
    231e:	09 08 04 00 00 00 44 62 92 0c 0c 08 08 04 03 00     ......Db........
    232e:	80 40 30 08 e4 1e 01 01 01 0d 03 01 00 00 10 1e     .@0.............
    233e:	22 c2 02 0c 08 08 08 06 01 00 c0 70 18 14 14 e2     "..........p....
    234e:	02 07 08 08 08 06 01 00 04 02 02 c2 32 0e 02 08     ............2...
    235e:	06 01 00 00 00 00 00 80 5c 22 42 a2 1c 07 08 08     ........\"B.....
    236e:	08 04 03 00 00 f0 0c 02 02 82 7c 08 08 09 05 03     ..........|.....
    237e:	01 00 00 00 60 60 0c 0c 00 00 00 00 00 60 60 20     ....``.......`` 
    238e:	14 0c 00 00 80 40 40 40 20 20 20 10 10 00 01 01     .....@@@   .....
    239e:	01 02 02 02 04 04 90 90 90 90 90 90 90 90 90 00     ................
	...
    23b6:	10 10 20 20 20 40 40 40 80 04 04 02 02 02 01 01     ..   @@@........
    23c6:	01 00 00 0c 82 42 22 1c 08 03 00 00 00 00 c0 30     .....B"........0
    23d6:	08 04 c4 22 12 12 e2 32 04 08 f0 00 0f 10 20 4f     ..."...2...... O
    23e6:	88 88 84 8f 89 88 44 26 11 08 00 00 00 80 e0 98     ......D&........
    23f6:	84 fe 00 08 0c 0b 00 00 08 08 0f 08 00 00 80 72     ...............r
    2406:	4e 42 42 a2 1c 08 0c 0b 08 08 08 04 03 00 e0 18     NBB.............
    2416:	04 04 02 02 02 04 1c 06 03 04 08 08 08 08 04 02     ................
    2426:	00 00 00 00 80 72 0e 02 02 02 02 04 f8 08 0c 0b     .....r..........
    2436:	08 08 08 08 04 04 03 00 00 00 80 72 4e 42 c2 72     ...........rNB.r
    2446:	02 0e 08 0c 0b 08 08 08 09 0c 02 00 00 00 80 72     ...............r
    2456:	4e 42 c2 72 02 0e 08 0c 0b 08 00 00 01 00 00 00     NB.r............
    2466:	e0 18 04 04 02 02 02 42 c4 5c 46 03 04 08 08 08     .......B.\F.....
    2476:	08 08 0c 03 00 00 00 00 80 72 4e 42 40 40 c0 72     .........rNB@@.r
    2486:	0e 08 0c 0b 00 00 00 08 0c 0b 08 00 00 00 80 72     ...............r
    2496:	0e 08 0c 0b 08 00 00 00 00 00 c2 3a 06 0e 08 08     ...........:....
    24a6:	04 03 00 00 00 00 80 72 ce 22 10 08 0a 06 02 08     .......r."......
    24b6:	0c 0b 08 00 01 0a 0c 08 08 00 00 00 80 72 0e 02     .............r..
    24c6:	02 00 08 0c 0b 08 08 08 08 0e 00 00 80 72 0e fc     .............r..
    24d6:	00 00 c0 20 90 7c 0e 08 0c 0b 08 00 0f 06 01 08     ... .|..........
    24e6:	0c 0b 08 00 00 00 82 72 0e 38 c0 00 00 e2 1e 08     .......r.8......
    24f6:	0c 0b 08 00 00 03 0c 07 00 00 c0 30 08 04 02 02     ...........0....
    2506:	02 02 84 78 03 04 08 08 08 08 04 02 01 00 00 00     ...x............
    2516:	80 72 4e 42 42 42 22 1c 08 0c 0b 08 00 00 00 00     .rNBBB".........
    2526:	00 00 c0 30 08 04 02 02 02 02 84 78 47 3c 28 28     ...0.......xG<((
    2536:	48 44 44 22 21 00 00 00 80 72 4e c2 42 22 1c 08     HDD"!....rN.B"..
    2546:	0c 0b 08 00 00 03 0c 08 00 00 1c 22 42 82 04 1c     ..........."B...
    2556:	0c 07 04 08 08 08 07 00 08 06 02 82 72 0e 02 02     ............r...
    2566:	00 08 0c 0b 08 00 00 00 82 72 0e 02 02 00 00 80     .........r......
    2576:	72 0e 07 08 08 08 08 08 04 03 00 00 c2 3e 02 82     r............>..
    2586:	40 30 0e 06 0f 04 03 00 00 00 00 00 82 7e 02 c0     @0...........~..
    2596:	32 8a 7e 82 42 30 0a 0f 06 01 00 00 0f 06 01 00     2.~.B0..........
    25a6:	00 00 00 00 02 02 9e e2 20 10 0a 06 08 0c 0a 01     ........ .......
    25b6:	00 08 0f 08 08 00 00 02 1e e2 20 10 0a 08 08 0f     .......... .....
    25c6:	08 00 00 00 00 00 0e 82 42 22 1a 06 02 08 0c 0b     ........B"......
    25d6:	08 08 08 0c 02 00 00 00 80 78 06 02 02 60 5c 43     .........x...`\C
    25e6:	40 00 00 00 7e c0 00 0f 00 00 00 02 c2 3a 06 40     @...~........:.@
    25f6:	40 60 1c 03 00 00 40 30 0c 02 0c 30 40 00 00 00     @`....@0...0@...
	...
    2612:	40 40 40 40 40 40 40 40 02 0c 00 00 00 80 40 20     @@@@@@@@......@ 
    2622:	20 c0 60 0f 08 08 04 0e 0b 04 00 80 72 4e 20 20      .`.........rN  
    2632:	c0 04 0b 08 08 04 06 01 00 c0 40 20 20 60 07 08     ..........@  `..
    2642:	08 08 04 00 00 80 40 20 20 c0 72 0e 0f 08 08 04     ......@  .r.....
    2652:	0e 0b 04 00 00 c0 40 20 20 e0 07 0a 0a 09 05 00     ......@  .......
    2662:	00 20 a0 70 2c 20 1c 03 00 00 00 c0 40 20 20 20     . .p, ......@   
    2672:	e0 20 30 4d 4a 4a 4a 51 30 00 00 80 72 8e 40 20     . 0MJJJQ0...r.@ 
    2682:	e0 0c 03 01 00 0c 0b 04 20 a0 64 0c 0b 04 00 00     ........ .d.....
    2692:	a0 64 20 1c 03 00 00 80 72 8e 60 20 20 20 0c 03     .d .....r.`   ..
    26a2:	01 03 0c 08 04 00 00 80 72 0e 0c 0b 04 00 00 a0     ........r.......
    26b2:	60 80 40 20 e0 80 40 20 e0 0c 03 01 00 0c 03 01     `.@ ..@ ........
    26c2:	00 0c 0b 04 00 20 e0 80 40 20 e0 0c 03 01 00 0c     ..... ..@ ......
    26d2:	0b 04 00 c0 40 20 20 20 c0 07 08 08 08 04 06 01     ....@   ........
    26e2:	20 a0 e0 40 20 20 c0 5c 0b 08 08 04 02 01 00 80      ..@  .\........
    26f2:	40 20 20 c0 60 07 08 48 64 5e 03 00 00 a0 e0 40     @  .`..Hd^.....@
    2702:	20 60 0c 03 00 00 00 00 00 c0 20 20 20 60 0e 08      `........   `..
    2712:	09 09 06 00 00 a0 70 28 0c 0b 08 04 40 a0 60 00     ......p(....@.`.
    2722:	00 80 60 0c 0b 08 04 0e 0b 04 20 60 c0 00 00 20     ..`....... `... 
    2732:	e0 00 00 0f 04 02 01 00 20 60 c0 00 00 80 e0 00     ........ `......
    2742:	20 e0 00 00 0f 02 01 00 0f 04 03 00 00 20 20 e0      ............  .
    2752:	40 20 20 08 0c 02 01 0e 08 00 20 60 c0 00 00 a0     @  ....... `....
    2762:	60 20 10 0f 04 02 01 00 40 20 20 a0 60 20 0c 0a     ` ......@  .` ..
    2772:	09 08 04 00 80 40 38 0c 02 38 47 00 00 00 fe ff     .....@8..8G.....
    2782:	00 00 00 e2 1c 40 30 1c 02 01 00 80 80 80 00 00     .....@0.........
    2792:	00 80 01 00 00 00 01 01 01 00 fe 02 02 02 02 02     ................
    27a2:	02 fe 0f 08 08 08 08 08 08 0f                       ..........

000027ac <_ZL20TimesNewRoman16_bold>:
    27ac:	2c 06 0a 10 20 60 02 02 06 08 07 0e 0c 02 04 04     ,... `..........
    27bc:	05 09 02 04 02 04 07 06 07 07 07 07 07 07 07 07     ................
    27cc:	02 02 08 08 08 06 0e 0b 0a 09 0b 09 09 0a 0c 06     ................
    27dc:	08 0c 09 10 0c 0a 09 0a 0c 07 08 0b 0b 0f 0b 0a     ................
    27ec:	09 03 04 03 07 08 02 07 07 05 07 06 05 07 08 04     ................
    27fc:	03 09 04 0c 08 06 07 07 06 05 05 08 08 0a 08 08     ................
    280c:	06 05 01 05 07 08 00 00 00 00 3e fe 0c 0d 1e 1e     ..........>.....
    281c:	00 00 1e 1e 00 00 00 00 00 00 20 20 f0 2e 20 f0     ..........  .. .
    282c:	2e 20 01 0f 01 01 0f 01 01 01 1c 3e 62 ff c2 86     . .........>b...
    283c:	0c 06 0c 08 1f 09 0f 07 3c 7e 42 7e 3c 00 c0 20     ........<~B~<.. 
    284c:	18 84 c2 40 c0 80 00 00 00 08 04 03 00 00 00 07     ...@............
    285c:	0f 08 0f 07 00 80 40 3c fe e2 22 1e ac 60 20 00     ......@<.."..` .
    286c:	07 0f 0c 08 08 0b 07 06 0d 0c 04 02 1e 1e 00 00     ................
    287c:	e0 f8 0c 02 07 1f 30 40 02 0c f8 e0 40 30 1f 07     ......0@....@0..
    288c:	28 38 1e 38 28 00 00 00 00 00 40 40 40 40 fc 40     (8.8(.....@@@@.@
    289c:	40 40 40 00 00 00 00 07 00 00 00 00 00 00 4c 3c     @@@...........L<
    28ac:	00 00 00 00 01 01 01 01 00 00 0c 0c 00 c0 38 06     ..............8.
    28bc:	0c 03 00 00 f8 fc 06 02 06 fc f8 03 07 0c 08 0c     ................
    28cc:	07 03 02 02 fe fe 00 00 08 08 0f 0f 08 08 08 0c     ................
    28dc:	06 86 fe 3c 00 08 0c 0e 0d 0c 0c 02 08 04 46 66     ...<..........Ff
    28ec:	fe dc 80 0c 0c 08 08 08 07 03 80 40 20 18 fc fe     ...........@ ...
    28fc:	00 03 03 03 03 0f 0f 03 20 3c 36 36 66 e6 c2 0c     ........ <66f...
    290c:	0c 0c 08 08 04 03 e0 f8 3c 24 66 c2 82 03 07 0c     ........<$f.....
    291c:	08 0c 07 03 0c 06 06 06 e6 1e 02 00 00 08 07 00     ................
    292c:	00 00 1c be 72 62 e2 fe 9c 07 0f 08 08 08 0f 07     ....rb..........
    293c:	38 7c c6 82 86 fc f8 08 08 0c 04 07 03 00 60 60     8|............``
    294c:	0c 0c 60 60 4c 3c 80 40 40 40 20 20 20 10 00 01     ..``L<.@@@   ...
    295c:	01 01 02 02 02 04 20 20 20 20 20 20 20 20 01 01     ......        ..
    296c:	01 01 01 01 01 01 10 20 20 20 40 40 40 80 04 02     .......   @@@...
    297c:	02 02 01 01 01 00 1c 1e 02 c2 7e 3c 00 00 0c 0d     ..........~<....
    298c:	00 00 e0 10 08 84 c2 62 22 22 c2 e2 04 08 f0 00     .......b""......
    299c:	0f 10 20 47 8f 88 84 86 8f 88 44 22 11 08 00 00     .. G......D"....
    29ac:	80 70 0c 1e 78 e0 80 00 00 08 0c 0b 09 01 01 01     .p..x...........
    29bc:	0b 0f 0e 08 02 02 fe fe 42 42 42 e2 be 1c 08 08     ........BBB.....
    29cc:	0f 0f 08 08 08 08 0f 07 f0 fc 0c 02 02 02 04 0c     ................
    29dc:	1e 01 07 06 08 08 08 08 04 02 02 02 fe fe 02 02     ................
    29ec:	02 06 0c f8 f0 08 08 0f 0f 08 08 08 0c 06 03 01     ................
    29fc:	02 02 fe fe 42 42 f2 02 0e 08 08 0f 0f 08 08 09     ....BB..........
    2a0c:	08 0e 02 02 fe fe 42 42 f2 02 0e 08 08 0f 0f 08     ......BB........
    2a1c:	08 01 00 00 f0 fc 0c 02 02 02 84 8c 9e 80 01 07     ................
    2a2c:	06 08 08 08 08 0f 07 00 02 02 fe fe 42 40 40 42     ............B@@B
    2a3c:	fe fe 02 02 08 08 0f 0f 08 00 00 08 0f 0f 08 08     ................
    2a4c:	02 02 fe fe 02 02 08 08 0f 0f 08 08 00 00 00 02     ................
    2a5c:	02 fe fe 02 07 0f 08 08 08 0f 07 00 02 02 fe fe     ................
    2a6c:	42 e2 90 10 0a 06 02 02 08 08 0f 0f 08 08 01 0b     B...............
    2a7c:	0e 0c 08 08 02 02 fe fe 02 02 00 00 00 08 08 0f     ................
    2a8c:	0f 08 08 08 08 0e 02 02 fe 06 3e f8 c0 00 00 c0     ..........>.....
    2a9c:	38 06 fe fe 02 02 08 08 0f 08 08 01 07 0e 03 00     8...............
    2aac:	08 08 0f 0f 08 08 02 02 fe 06 0e 38 70 c2 82 fe     ...........8p...
    2abc:	02 02 08 08 0f 08 08 00 00 01 03 0f 00 00 f0 fc     ................
    2acc:	0c 02 02 02 02 0c fc f0 01 07 06 08 08 08 08 06     ................
    2adc:	07 01 02 02 fe fe 42 42 42 7e 3c 08 08 0f 0f 08     ......BBB~<.....
    2aec:	08 00 00 00 f0 fc 0c 02 02 02 02 0c fc f0 01 07     ................
    2afc:	06 08 18 38 68 46 47 01 02 02 fe fe 42 42 c2 c2     ...8hFG.....BB..
    2b0c:	7e 3c 00 00 08 08 0f 0f 08 08 00 03 0f 0c 08 08     ~<..............
    2b1c:	1c 3e 72 e2 c2 84 1e 0f 04 08 08 09 0f 07 0e 02     .>r.............
    2b2c:	02 fe fe 02 02 0e 00 08 08 0f 0f 08 08 00 02 02     ................
    2b3c:	fe fe 02 00 00 02 fe 02 02 00 00 07 0f 08 08 08     ................
    2b4c:	08 07 00 00 02 02 0e 7e f2 80 00 c0 32 0e 02 00     .......~....2...
    2b5c:	00 00 00 01 0f 0e 01 00 00 00 02 0e 7e f2 80 00     ............~...
    2b6c:	e2 1e 7e f2 80 00 e2 1e 02 00 00 00 01 0f 0f 00     ..~.............
    2b7c:	00 00 01 0f 0e 01 00 00 02 02 06 1e fa e0 a0 1a     ................
    2b8c:	06 02 02 08 0c 0c 0b 00 01 0b 0f 0c 08 08 02 06     ................
    2b9c:	1e 7a e2 80 60 1a 06 02 00 00 08 08 0f 0f 08 08     .z..`...........
    2bac:	00 00 00 1e 06 c2 e2 7a 1e 06 02 08 0c 0f 0b 08     .......z........
    2bbc:	08 08 0c 0f fe fe 02 7f 7f 40 06 78 80 00 00 00     .........@.x....
    2bcc:	03 0c 02 fe fe 40 7f 7f 40 30 0c 02 0c 30 40 00     .....@..@0...0@.
	...
    2be8:	00 00 40 40 40 40 40 40 40 40 02 04 00 00 40 60     ..@@@@@@@@....@`
    2bf8:	20 20 e0 c0 00 06 0f 09 09 0f 0f 08 02 fe fe 20       ............. 
    2c08:	20 e0 c0 00 0f 07 08 08 0f 07 c0 e0 20 60 60 07      ........... ``.
    2c18:	0f 08 08 04 c0 e0 20 22 fe fe 00 07 0f 08 08 0f     ...... "........
    2c28:	0f 08 c0 e0 20 20 e0 c0 07 0f 09 09 09 05 20 fc     ....  ........ .
    2c38:	fe 22 06 08 0f 0f 08 00 c0 e0 20 20 e0 e0 20 3d     ."........  .. =
    2c48:	5b 5a 5a 5b 59 30 02 fe fe 40 20 e0 c0 00 08 0f     [ZZ[Y0...@ .....
    2c58:	0f 08 00 0f 0f 08 20 e6 e6 00 08 0f 0f 08 20 e6     ...... ....... .
    2c68:	e6 40 7f 3f 02 fe fe 00 80 60 20 20 00 08 0f 0f     .@.?.....`  ....
    2c78:	09 03 0e 0c 08 08 02 fe fe 00 08 0f 0f 08 20 e0     .............. .
    2c88:	e0 40 20 e0 c0 40 20 e0 c0 00 08 0f 0f 08 00 0f     .@ ..@ .........
    2c98:	0f 08 00 0f 0f 08 20 e0 e0 40 20 e0 c0 00 08 0f     ...... ..@ .....
    2ca8:	0f 08 00 0f 0f 08 c0 e0 20 20 e0 c0 07 0f 08 08     ........  ......
    2cb8:	0f 07 20 e0 e0 20 20 e0 c0 40 7f 7f 48 08 0f 07     .. ..  ..@..H...
    2cc8:	c0 e0 20 20 c0 e0 00 07 0f 08 48 7f 7f 40 20 e0     ..  ......H..@ .
    2cd8:	e0 40 20 60 08 0f 0f 08 00 00 c0 e0 a0 20 60 0c     .@ `......... `.
    2ce8:	09 0b 0f 06 20 f0 fc 20 20 00 07 0f 08 04 20 e0     .... ..  ..... .
    2cf8:	e0 00 20 e0 e0 00 00 07 0f 08 08 0f 0f 08 20 60     .. ........... `
    2d08:	e0 a0 00 a0 60 20 00 00 03 0f 0c 03 00 00 60 e0     ....` ........`.
    2d18:	a0 00 a0 e0 a0 00 a0 60 00 01 0f 0e 01 01 0f 0e     .......`........
    2d28:	01 00 20 20 e0 e0 80 60 20 20 08 08 0c 03 0f 0e     ..  ...`  ......
    2d38:	08 08 20 e0 e0 a0 00 a0 60 20 60 60 43 3f 0e 01     .. .....` ``C?..
    2d48:	00 00 60 20 a0 e0 e0 20 08 0e 0f 0b 08 0c 80 7c     ..` ... .......|
    2d58:	3e 02 02 00 3f 7e 40 40 fe 7f 02 02 3e 7c 80 40     >...?~@@....>|.@
    2d68:	40 7e 3f 00 80 80 80 00 00 00 80 01 00 00 01 01     @~?.............
    2d78:	01 01 fe 02 02 02 02 02 02 fe 0f 08 08 08 08 08     ................
    2d88:	08 0f                                               ..

00002d8a <_ZL15TimesNewRoman16>:
    2d8a:	29 26 0a 10 20 60 02 01 03 08 06 0c 0b 01 04 04     )&.. `..........
    2d9a:	07 09 02 04 01 04 06 04 06 06 07 06 06 07 06 06     ................
    2daa:	01 02 07 09 07 05 0e 0b 09 09 0a 09 08 0a 0b 05     ................
    2dba:	06 0b 09 0e 0c 0a 08 0a 0a 07 09 0b 0b 0f 0b 0a     ................
    2dca:	09 03 04 03 08 08 02 06 07 05 07 05 04 07 07 03     ................
    2dda:	03 08 03 0b 07 06 07 07 05 04 04 07 07 0b 07 07     ................
    2dea:	06 04 01 04 09 08 00 00 00 00 fe 0b 1e 00 1e 00     ................
    2dfa:	00 00 20 20 f0 2e 20 f0 2e 20 01 0f 01 01 0f 01     ..  .. .. ......
    2e0a:	01 01 1c 22 ff 42 82 0c 06 08 1f 08 08 07 3c 42     ...".B........<B
    2e1a:	42 3c 00 c0 20 10 8c 42 40 80 00 00 0c 02 01 00     B<.. ..B@.......
    2e2a:	00 00 07 08 08 07 00 80 5c 62 e2 12 1c a0 60 20     ........\b....` 
    2e3a:	00 07 0c 08 08 08 07 06 09 08 08 04 1e 00 e0 18     ................
    2e4a:	04 02 07 18 20 40 02 04 18 e0 40 20 18 07 24 24     .... @....@ ..$$
    2e5a:	18 7e 18 24 24 00 00 00 00 00 00 00 40 40 40 40     .~.$$.......@@@@
    2e6a:	fc 40 40 40 40 00 00 00 00 07 00 00 00 00 00 00     .@@@@...........
    2e7a:	28 18 00 00 00 00 01 01 01 01 00 08 00 c0 38 06     (.............8.
    2e8a:	0c 03 00 00 f8 04 02 02 04 f8 03 04 08 08 04 03     ................
    2e9a:	04 04 fe 00 00 08 0f 08 0c 02 02 82 44 38 0c 0a     ............D8..
    2eaa:	09 08 08 0c 04 02 42 62 52 8c 08 08 08 08 04 03     ......BbR.......
    2eba:	80 40 20 18 04 fe 00 01 01 01 01 01 0f 01 10 1c     .@ .............
    2eca:	12 12 22 c2 08 08 08 08 04 03 e0 58 24 22 62 82     .."........X$"b.
    2eda:	03 04 08 08 04 03 04 02 02 02 82 72 0e 00 00 00     ...........r....
    2eea:	0c 03 00 00 1c a2 42 42 a2 1c 07 08 08 08 08 07     ......BB........
    2efa:	38 44 82 82 44 f8 08 08 04 04 03 00 20 08 20 00     8D..D....... . .
    2f0a:	28 18 40 a0 a0 10 10 10 08 00 00 00 01 01 01 02     (.@.............
    2f1a:	20 20 20 20 20 20 20 20 20 01 01 01 01 01 01 01              .......
    2f2a:	01 01 08 10 10 10 a0 a0 40 02 01 01 01 00 00 00     ........@.......
    2f3a:	0c 02 82 62 1c 00 00 0b 00 00 c0 30 08 04 c4 22     ...b.......0..."
    2f4a:	12 12 e2 32 04 08 f0 00 0f 10 20 4f 88 88 84 8f     ...2...... O....
    2f5a:	89 88 44 26 11 08 00 00 00 c0 38 06 38 c0 00 00     ..D&......8.8...
    2f6a:	00 08 08 0e 09 01 01 01 09 0e 08 08 02 02 fe 42     ...............B
    2f7a:	42 42 64 98 00 08 08 0f 08 08 08 08 04 03 f0 08     BBd.............
    2f8a:	04 02 02 02 02 04 1e 01 02 04 08 08 08 08 04 02     ................
    2f9a:	02 02 fe 02 02 02 02 04 08 f0 08 08 0f 08 08 08     ................
    2faa:	08 04 02 01 02 02 fe 42 42 42 e2 06 00 08 08 0f     .......BBB......
    2fba:	08 08 08 08 0c 02 02 02 fe 42 42 42 e2 06 08 08     .........BBB....
    2fca:	0f 08 08 00 00 00 f0 08 04 02 02 02 42 44 ce 40     ............BD.@
    2fda:	01 02 04 08 08 08 08 08 07 00 02 02 fe 42 42 40     .............BB@
    2fea:	42 42 fe 02 02 08 08 0f 08 08 00 08 08 0f 08 08     BB..............
    2ffa:	02 02 fe 02 02 08 08 0f 08 08 00 02 02 fe 02 02     ................
    300a:	0c 08 08 07 00 00 02 02 fe 42 42 a0 12 0a 06 02     .........BB.....
    301a:	00 08 08 0f 08 08 00 01 0a 0c 08 08 02 02 fe 02     ................
    302a:	02 00 00 00 00 08 08 0f 08 08 08 08 0c 02 02 02     ................
    303a:	fe 0c 30 c0 00 00 80 70 0c fe 02 02 08 08 0f 08     ..0....p........
    304a:	08 01 02 0e 01 08 08 0f 08 08 02 02 fe 08 10 20     ............... 
    305a:	c0 02 02 fe 02 02 08 08 0f 08 08 00 00 01 02 0f     ................
    306a:	00 00 f0 08 04 02 02 02 02 04 08 f0 01 02 04 08     ................
    307a:	08 08 08 04 02 01 02 02 fe 82 82 82 44 38 08 08     ............D8..
    308a:	0f 08 08 00 00 00 f0 08 04 02 02 02 02 04 08 f0     ................
    309a:	01 02 04 08 08 18 28 24 42 41 02 02 fe 42 42 c2     ......($BA...BB.
    30aa:	24 18 00 00 08 08 0f 08 08 00 03 04 08 08 18 24     $..............$
    30ba:	22 42 42 84 0e 0e 04 08 08 08 04 03 0e 02 02 02     "BB.............
    30ca:	fe 02 02 02 0e 00 00 08 08 0f 08 08 00 00 02 02     ................
    30da:	fe 02 02 00 02 02 fe 02 02 00 00 03 04 08 08 08     ................
    30ea:	04 03 00 00 02 02 1e e2 00 00 00 e2 1e 02 02 00     ................
    30fa:	00 00 00 07 08 07 00 00 00 00 02 06 0e 72 80 02     .............r..
    310a:	82 5e e2 00 00 e2 1e 02 02 00 00 00 00 03 0c 03     .^..............
    311a:	00 00 03 0c 03 00 00 00 02 02 06 0a b2 40 b0 0a     .............@..
    312a:	06 02 02 08 08 0c 0a 01 00 01 0a 0c 08 08 02 02     ................
    313a:	0e 32 c0 20 1a 06 02 02 00 00 08 08 0f 08 08 00     .2. ............
    314a:	00 00 00 0e 02 82 62 12 0e 02 00 08 0e 09 08 08     ......b.........
    315a:	08 08 0c 02 fe 02 02 7f 40 40 06 78 80 00 00 00     ........@@.x....
    316a:	03 0c 02 02 fe 40 40 7f 40 30 0c 02 02 0c 30 40     .....@@.@0....0@
	...
    318a:	40 40 40 40 40 40 40 40 02 0c 00 00 40 20 20 a0     @@@@@@@@....@  .
    319a:	c0 00 06 09 09 04 0f 08 04 fe 40 20 20 40 80 00     ..........@  @..
    31aa:	07 08 08 08 04 03 c0 20 20 20 40 07 08 08 08 04     .......   @.....
    31ba:	80 40 20 20 44 fe 00 03 04 08 08 04 0f 04 c0 a0     .@  D...........
    31ca:	a0 a0 c0 07 08 08 08 04 20 fc 22 22 08 0f 08 08     ........ .""....
    31da:	00 c0 20 20 20 e0 20 30 4d 4a 4a 4a 49 30 04 fe     ..   . 0MJJJI0..
    31ea:	40 20 20 c0 00 08 0f 08 00 08 0f 08 40 e2 00 08     @  .........@...
    31fa:	0f 08 00 40 e2 40 40 3f 04 fe 00 80 60 20 20 00     ...@.@@?....`  .
    320a:	08 0f 09 01 02 0c 08 08 04 fe 00 08 0f 08 40 e0     ..............@.
    321a:	40 20 20 c0 40 20 20 c0 00 08 0f 08 00 08 0f 08     @  .@  .........
    322a:	00 08 0f 08 40 e0 40 20 20 c0 00 08 0f 08 00 08     ....@.@  .......
    323a:	0f 08 80 40 20 20 40 80 03 04 08 08 04 03 40 e0     ...@  @.......@.
    324a:	40 20 20 40 80 40 7f 44 08 08 04 03 80 40 20 20     @  @.@.D.....@  
    325a:	40 e0 00 07 0c 08 08 44 7f 40 40 e0 40 20 20 08     @......D.@@.@  .
    326a:	0f 08 00 00 c0 20 20 60 0c 09 09 06 20 f8 20 20     .....  `.... .  
    327a:	00 0f 08 04 20 e0 00 00 20 e0 00 00 07 08 08 04     .... ... .......
    328a:	0f 04 20 e0 20 00 20 e0 20 00 00 07 08 07 00 00     .. . . . .......
    329a:	20 e0 20 00 20 e0 20 00 20 e0 20 00 00 07 0c 03      . . . . . .....
    32aa:	00 07 0c 03 00 00 20 60 a0 00 a0 60 20 08 0c 0a     ...... `...` ...
    32ba:	01 0a 0c 08 20 e0 20 00 20 e0 20 40 40 23 1c 07     .... . . . @@#..
    32ca:	00 00 00 60 20 a0 60 20 08 0c 0b 08 08 0c 80 78     ...` .` .......x
    32da:	04 02 00 1f 20 40 fe ff 02 04 78 80 40 20 1f 00     .... @....x.@ ..
    32ea:	00 80 80 80 00 00 00 00 80 01 00 00 00 01 01 01     ................
    32fa:	01 00 fe 02 02 02 02 02 02 fe 0f 08 08 08 08 08     ................
    330a:	08 0f                                               ..

0000330c <_ZL10Callibri15>:
    330c:	20 55 0a 0f 20 60 02 01 04 08 06 0a 09 01 03 03      U.. `..........
    331c:	05 07 02 03 01 06 06 05 06 06 06 06 06 06 06 06     ................
    332c:	01 02 06 07 06 05 0c 09 07 08 08 06 05 08 08 01     ................
    333c:	04 06 06 0b 08 09 06 0a 07 05 07 08 09 0b 08 07     ................
    334c:	07 03 06 03 07 08 03 06 06 05 06 06 04 07 06 01     ................
    335c:	02 05 01 09 06 06 06 06 04 05 04 06 05 09 05 05     ................
    336c:	04 04 01 04 07 08 00 00 00 00 fe 1a 1e 00 00 1e     ................
    337c:	00 00 00 00 20 a0 7c 20 20 a0 7c 20 02 1e 02 02     .... .|  .| ....
    338c:	02 1e 02 02 38 44 44 87 84 08 08 10 70 10 10 0e     ....8DD.....p...
    339c:	38 44 44 38 80 60 10 8c 80 00 00 00 18 04 02 00     8DD8.`..........
    33ac:	0e 10 10 0e 80 5c 22 62 92 0c 00 c0 00 0e 10 10     .....\"b........
    33bc:	10 10 0a 04 0a 10 1e 00 f0 0c 02 1e 60 80 02 0c     ............`...
    33cc:	f0 80 60 1e 24 18 7e 18 24 00 00 00 00 00 80 80     ..`.$.~.$.......
    33dc:	80 f0 80 80 80 00 00 00 0e 00 00 00 00 00 40 38     ..............@8
    33ec:	00 00 00 02 02 02 00 18 00 00 80 60 18 06 60 18     ...........`..`.
    33fc:	06 00 00 00 f8 04 04 04 04 f8 0e 10 10 10 10 0e     ................
    340c:	10 08 fc 00 00 10 10 1e 10 10 08 04 04 04 c4 38     ...............8
    341c:	10 18 14 12 10 10 08 44 44 44 44 b8 08 10 10 10     .......DDDD.....
    342c:	10 0e 00 c0 30 0c fc 00 06 04 04 04 1e 04 00 7c     ....0..........|
    343c:	44 44 44 84 08 10 10 10 10 0e f0 88 44 44 44 84     DDD.........DDD.
    344c:	0e 10 10 10 10 0e 04 04 04 c4 34 0c 00 10 0c 02     ..........4.....
    345c:	00 00 b8 44 44 44 44 b8 0e 10 10 10 10 0e 78 84     ...DDDD.......x.
    346c:	84 84 44 f8 10 10 10 10 08 06 60 18 00 60 40 38     ..D.......`..`@8
    347c:	80 40 40 20 20 10 00 02 02 04 04 08 20 20 20 20     .@@  .......    
    348c:	20 20 20 02 02 02 02 02 02 02 10 20 20 40 40 80        ........  @@.
    349c:	08 04 04 02 02 00 04 02 c2 42 3c 00 00 1a 00 00     .........B<.....
    34ac:	c0 30 08 88 44 24 24 44 e4 04 08 f0 0e 30 20 46     .0..D$$D.....0 F
    34bc:	48 48 44 46 48 08 04 02 00 00 c0 30 0c 30 c0 00     HHDFH......0.0..
    34cc:	00 18 06 02 02 02 02 02 06 18 fc 44 44 44 44 b8     ...........DDDD.
    34dc:	00 1e 10 10 10 10 10 0e f0 08 04 04 04 04 04 08     ................
    34ec:	06 08 10 10 10 10 10 08 fc 04 04 04 04 04 08 f0     ................
    34fc:	1e 10 10 10 10 10 08 06 fc 44 44 44 44 04 1e 10     .........DDDD...
    350c:	10 10 10 10 fc 44 44 44 44 1e 00 00 00 00 f0 08     .....DDDD.......
    351c:	04 04 84 84 84 88 06 08 10 10 10 10 10 0e fc 40     ...............@
    352c:	40 40 40 40 40 fc 1e 00 00 00 00 00 00 1e fc 1e     @@@@@...........
    353c:	00 00 00 fc 10 10 10 0e fc 40 a0 10 08 04 1e 00     .........@......
    354c:	00 06 08 10 fc 00 00 00 00 00 1e 10 10 10 10 10     ................
    355c:	fc 0c 30 c0 00 00 00 c0 30 0c fc 1e 00 00 00 06     ..0.....0.......
    356c:	18 06 00 00 00 1e fc 04 18 60 80 00 00 fc 1e 00     .........`......
    357c:	00 00 02 0c 10 1e f0 08 04 04 04 04 04 08 f0 06     ................
    358c:	08 10 10 10 10 10 08 06 fc 84 84 84 84 78 1e 00     .............x..
    359c:	00 00 00 00 f0 08 04 04 04 04 04 08 f0 00 06 08     ................
    35ac:	10 10 10 10 10 18 26 20 fc 84 84 84 84 78 00 1e     ......& .....x..
    35bc:	00 00 00 02 0c 10 38 44 44 84 08 08 10 10 10 0e     ......8DD.......
    35cc:	04 04 04 fc 04 04 04 00 00 00 1e 00 00 00 fc 00     ................
    35dc:	00 00 00 00 00 fc 06 08 10 10 10 10 08 06 0c 30     ...............0
    35ec:	c0 00 00 00 c0 30 0c 00 00 00 06 18 06 00 00 00     .....0..........
    35fc:	1c e0 00 00 e0 1c e0 00 00 e0 1c 00 02 1c 06 00     ................
    360c:	00 00 06 1c 02 00 04 08 30 c0 c0 30 08 04 10 08     ........0..0....
    361c:	06 00 00 06 08 10 04 18 60 80 60 18 04 00 00 00     ........`.`.....
    362c:	1e 00 00 00 04 04 04 c4 24 14 0c 18 14 12 10 10     ........$.......
    363c:	10 10 fe 02 02 fe 80 80 06 18 60 80 00 00 00 00     ..........`.....
    364c:	00 06 18 60 02 02 fe 80 80 fe 80 60 18 04 18 60     ...`.......`...`
    365c:	80 00 00 00 00 00 00 00 00 00 00 00 00 00 00 00     ................
    366c:	80 80 80 80 80 80 80 80 02 04 08 00 00 00 40 20     ..............@ 
    367c:	20 20 20 c0 0c 12 12 12 0a 1e fe 40 20 20 20 c0        ........@   .
    368c:	1e 08 10 10 10 0e c0 20 20 20 40 0e 10 10 10 08     .......   @.....
    369c:	c0 20 20 20 40 fe 0e 10 10 10 08 1e c0 20 20 20     .   @........   
    36ac:	20 c0 0e 12 12 12 12 12 20 fc 22 22 00 1e 00 00      ....... .""....
    36bc:	c0 20 20 20 20 e0 20 6a 94 94 94 94 92 60 fe 40     .    . j.....`.@
    36cc:	20 20 20 c0 1e 00 00 00 00 1e e8 1e 00 e8 80 7e        ............~
    36dc:	fe 00 80 40 20 1e 02 04 08 10 fe 1e e0 40 20 20     ...@ ........@  
    36ec:	c0 40 20 20 c0 1e 00 00 00 1e 00 00 00 1e e0 40     .@  ...........@
    36fc:	20 20 20 c0 1e 00 00 00 00 1e c0 20 20 20 20 c0        ........    .
    370c:	0e 10 10 10 10 0e e0 40 20 20 20 c0 fe 08 10 10     .......@   .....
    371c:	10 0e c0 20 20 20 40 e0 0e 10 10 10 08 fe e0 40     ...   @........@
    372c:	20 20 1e 00 00 00 c0 20 20 20 20 10 12 12 12 0c       .....    .....
    373c:	20 f8 20 20 00 0e 10 10 e0 00 00 00 00 e0 0e 10      .  ............
    374c:	10 10 08 1e 60 80 00 80 60 00 06 18 06 00 60 80     ....`...`.....`.
    375c:	00 80 60 80 00 80 60 00 06 18 06 00 06 18 06 00     ..`...`.........
    376c:	20 c0 00 c0 20 10 0c 02 0c 10 60 80 00 80 60 00      ... .....`...`.
    377c:	c6 38 06 00 20 20 a0 60 18 16 10 10 80 7c 02 02     .8..  .`.....|..
    378c:	00 7e 80 80 fe fe 02 02 7c 80 80 80 7e 00 30 08     .~......|...~.0.
    379c:	08 10 20 20 18 00 00 00 00 00 00 00 fc 04 14 94     ..  ............
    37ac:	94 64 04 fc 1e 10 10 14 10 10 10 1e                 .d..........

000037b8 <_ZL17Callibri11_italic>:
    37b8:	14 40 0a 0b 20 60 02 02 03 06 06 08 07 01 03 03     .@.. `..........
    37c8:	04 06 02 03 01 05 05 05 06 06 05 06 05 05 05 06     ................
    37d8:	02 03 05 05 06 04 0a 07 06 05 06 05 05 07 06 02     ................
    37e8:	04 05 04 09 07 07 05 07 06 05 05 07 05 09 06 05     ................
    37f8:	06 03 03 03 04 05 02 05 05 04 05 05 04 05 05 02     ................
    3808:	03 04 02 09 05 05 05 05 03 05 03 05 04 08 05 05     ................
    3818:	05 03 03 04 05 06 00 00 00 00 60 1e 20 00 08 06     ..........`. ...
    3828:	08 00 00 00 c8 78 4e c8 78 4e 20 00 00 20 00 00     .....xN.xN .. ..
    3838:	80 0c 12 22 c3 04 00 60 20 20 00 00 0c 92 52 2c     ..."...`  ....R,
    3848:	d0 28 24 c2 20 00 00 00 00 20 20 00 c0 20 1c 32     .($. ....  .. .2
    3858:	ca c4 20 00 20 20 20 00 00 20 08 00 e0 1c 02 60     .. .   .. .....`
    3868:	80 00 00 82 7c 80 60 00 14 38 0e 14 00 00 00 00     ....|.`..8......
    3878:	20 20 e0 38 20 20 00 00 00 00 00 00 00 00 80 60       .8  .........`
    3888:	20 20 20 00 00 00 00 20 80 60 18 06 01 20 00 00        .... .`... ..
    3898:	00 00 f0 0c 02 c2 3c 00 20 20 00 00 00 04 e2 1e     ......<.  ......
    38a8:	00 20 20 20 20 20 00 80 44 22 12 0c 20 20 20 20     .     ..D"..    
    38b8:	20 00 80 00 14 12 f2 0c 00 20 20 20 00 00 60 50      ........   ..`P
    38c8:	48 e4 5e 00 00 00 20 00 80 18 16 12 e2 02 00 20     H.^... ........ 
    38d8:	20 20 00 00 e0 18 14 92 62 00 20 20 00 00 02 c2       ......b.  ....
    38e8:	32 0a 06 20 00 00 00 00 e0 1c 12 f2 0c 00 20 20     2.. ..........  
    38f8:	00 00 00 18 24 a2 62 1c 20 20 20 00 00 00 00 08     ....$.b.   .....
    3908:	20 00 00 00 08 80 60 00 20 50 50 50 88 00 00 00      .....`. PPP....
    3918:	00 00 50 50 50 50 50 00 00 00 00 00 80 88 50 50     ..PPPPP.......PP
    3928:	50 20 00 00 00 00 00 00 62 12 12 0c 20 00 00 00     P ......b... ...
    3938:	e0 18 04 24 52 4a 7a 4a 22 1c 00 20 40 40 40 40     ...$RJzJ".. @@@@
    3948:	40 00 00 00 00 c0 70 4c 42 7c c0 20 00 00 00 00     @.....pLB|. ....
    3958:	00 20 e0 1e 12 12 12 ec 20 20 20 20 20 00 f0 0c     . ......     ...
    3968:	02 02 82 00 20 20 20 00 e0 1e 02 02 c2 3c 20 20     ....   ......<  
    3978:	20 20 00 00 e0 1e 12 12 12 20 20 20 20 20 e0 1e       .......     ..
    3988:	12 12 12 20 00 00 00 00 f0 0c 02 02 12 d2 34 00     ... ..........4.
    3998:	20 20 20 20 00 00 e0 1e 10 10 f0 1e 20 00 00 00         ........ ...
    39a8:	20 00 e0 1e 20 00 00 00 e0 1e 20 20 00 00 e0 1e      ... .....  ....
    39b8:	30 c8 04 20 00 00 00 20 e0 1e 00 00 20 20 20 20     0.. ... ....    
    39c8:	e0 1e 06 78 80 60 18 e6 1e 20 00 00 00 20 00 00     ...x.`... ... ..
    39d8:	20 00 e0 1e 0c 30 c0 e0 1e 20 00 00 00 00 20 00      ....0... .... .
    39e8:	f0 0c 02 02 02 c2 3c 00 20 20 20 20 00 00 e0 3e     ......<.    ...>
    39f8:	22 22 1c 20 00 00 00 00 f0 0c 02 02 02 c2 3c 00     "". ..........<.
    3a08:	20 20 20 20 20 40 e0 1e 12 32 d2 0c 20 00 00 00          @...2.. ...
    3a18:	20 00 80 0c 12 22 c2 00 20 20 20 00 02 e2 1e 02      ...."..   .....
    3a28:	02 00 20 00 00 00 e0 1e 00 00 00 e0 1e 00 20 20     .. ...........  
    3a38:	20 20 00 00 fe 80 60 10 0c 20 00 00 00 00 3e c0       ....`.. ....>.
    3a48:	60 18 0e f0 40 30 0c 00 20 00 00 00 20 00 00 00     `...@0.. ... ...
    3a58:	00 80 46 78 88 04 20 00 00 00 20 00 06 d8 20 18     ..Fx.. ... ... .
    3a68:	04 00 20 00 00 00 80 42 22 12 0a 06 20 20 20 20     .. ....B"...    
    3a78:	20 00 c0 3e 02 e0 80 00 07 f8 00 00 00 e0 00 c2      ..>............
    3a88:	3e 80 e0 00 10 0c 02 1c 00 00 00 00 00 00 00 00     >...............
    3a98:	00 80 80 80 80 80 01 02 00 00 e0 10 08 c8 38 00     ..............8.
    3aa8:	20 20 20 00 c0 3e 08 88 70 20 20 20 00 00 e0 10        ..>..p   ....
    3ab8:	08 88 00 20 20 00 e0 10 08 c8 3e 00 20 20 20 00     ...  .....>.   .
    3ac8:	e0 30 28 28 10 00 20 20 20 00 00 88 78 0c 80 60     .0((..   ...x..`
    3ad8:	00 00 e0 10 08 c8 38 80 a0 a0 60 00 c0 3e 08 c8     ......8...`..>..
    3ae8:	30 20 00 00 20 00 c0 3a 20 00 00 c0 3a 80 60 00     0 .. ..: ...:.`.
    3af8:	c0 3e e0 10 20 00 00 20 c0 3e 20 00 c0 38 10 08     .>.. .. .> ..8..
    3b08:	c8 30 08 c8 30 20 00 00 00 20 00 00 20 00 c0 38     .0..0 ... .. ..8
    3b18:	08 c8 30 20 00 00 20 00 e0 10 08 88 70 00 20 20     ..0 .. .....p.  
    3b28:	00 00 c0 38 08 88 70 e0 20 20 00 00 e0 10 08 c8     ...8..p.  ......
    3b38:	38 00 20 20 e0 00 c0 38 08 20 00 00 00 10 28 c8     8.  ...8. ....(.
    3b48:	08 20 20 20 00 00 c8 3c 08 00 20 20 c0 38 00 c0     .   ...<..  .8..
    3b58:	38 00 20 20 20 00 f8 80 40 30 20 00 00 00 f8 80     8.   ...@0 .....
    3b68:	60 10 f8 80 40 30 20 00 00 00 20 00 00 00 00 88     `...@0 ... .....
    3b78:	70 e0 10 20 00 00 00 20 00 f8 00 c0 30 80 40 20     p.. ... ....0.@ 
    3b88:	00 00 00 88 48 28 18 20 20 20 20 20 20 e0 1e 00     ....H(.      ...
    3b98:	e0 80 00 f0 0e e0 00 00 00 c2 3e 20 80 60 00 00     ..........> .`..
    3ba8:	10 08 08 10 10 00 00 00 00 00 fe 02 5a 0a 02 fe     ............Z...
    3bb8:	20 20 20 20 20 20                                         

00003bbe <_ZL15Callibri11_bold>:
    3bbe:	14 61 0a 0b 20 60 02 02 03 06 05 08 08 01 03 03     .a.. `..........
    3bce:	05 05 02 03 02 05 05 06 05 05 06 05 05 05 05 05     ................
    3bde:	02 02 05 05 05 05 0a 06 06 05 07 05 05 07 07 02     ................
    3bee:	03 06 04 09 07 07 05 08 06 05 06 07 06 0a 06 06     ................
    3bfe:	05 03 05 03 05 06 02 05 05 04 05 05 03 06 05 02     ................
    3c0e:	02 05 02 08 05 05 05 05 03 04 03 05 05 08 05 05     ................
    3c1e:	04 03 01 04 05 06 00 00 00 00 be be 20 20 0e 00     ............  ..
    3c2e:	0e 00 00 00 48 e8 5e e8 5e 48 00 20 00 20 00 00     ....H.^.^H. . ..
    3c3e:	9c 3e 33 f2 e4 00 20 60 20 00 0c 12 8c 60 18 c6     .>3... ` ....`..
    3c4e:	20 c0 00 00 20 00 00 00 20 00 c0 ec 3e 32 7e cc      ... ... ...>2~.
    3c5e:	e0 00 00 20 20 20 20 00 20 20 0e 00 f0 fc 06 00     ...    .  ......
    3c6e:	60 c0 06 fc f0 c0 60 00 12 0c 3f 0c 12 00 00 00     `.....`...?.....
    3c7e:	00 00 20 20 f8 20 20 00 00 00 00 00 80 80 e0 60     ..  .  ........`
    3c8e:	20 20 20 00 00 00 80 80 20 20 00 80 70 0c 03 c0        .....  ..p...
    3c9e:	20 00 00 00 fc fe 02 fe fc 00 20 20 20 00 08 04      .........   ...
    3cae:	fe fe 00 00 20 20 20 20 20 20 84 c2 62 3e 1c 20     ....      ..b>. 
    3cbe:	20 20 20 20 84 12 12 fe ec 00 20 20 20 00 60 58         ......   .`X
    3cce:	46 fe fe 40 00 00 00 20 20 00 1e 1e 12 f2 e2 20     F..@...  ...... 
    3cde:	20 20 20 00 fc fe 12 f2 e2 00 20 20 20 00 02 c2        .......   ...
    3cee:	fa 3e 06 00 20 20 00 00 ec fe 12 fe ec 00 20 20     .>..  ........  
    3cfe:	20 00 1c 3e 22 fe fc 20 20 20 20 00 98 98 20 20      ..>"..    ...  
    3d0e:	98 98 e0 60 20 50 50 88 88 00 00 00 00 00 50 50     ...` PP.......PP
    3d1e:	50 50 50 00 00 00 00 00 88 88 50 50 20 00 00 00     PPP.......PP ...
    3d2e:	00 00 02 b2 b2 1e 0c 00 20 20 00 00 f0 08 64 92     ........  ....d.
    3d3e:	8a 4a f2 9a 84 78 00 20 40 40 40 40 40 00 00 00     .J...x. @@@@@...
    3d4e:	e0 f8 4e 4e f8 e0 20 20 00 00 20 20 fe fe 12 12     ..NN..  ..  ....
    3d5e:	fe ec 20 20 20 20 20 00 fc fe 02 02 84 00 20 20     ..     .......  
    3d6e:	20 00 fe fe 02 02 86 fc 78 20 20 20 20 20 00 00      .......x     ..
    3d7e:	fe fe 12 12 12 20 20 20 20 20 fe fe 12 12 12 20     .....     ..... 
    3d8e:	20 00 00 00 fc fe 02 02 22 e2 e4 00 20 20 20 20      ......."...    
    3d9e:	20 00 fe fe 10 10 10 fe fe 20 20 00 00 00 20 20      ........  ...  
    3dae:	fe fe 20 20 00 fe fe 20 20 00 fe fe 30 fc ce 02     ..  ...  ...0...
    3dbe:	20 20 00 00 20 20 fe fe 00 00 20 20 20 20 fe fe       ..  ....    ..
    3dce:	1c 70 c0 70 1c fe fe 20 20 00 00 20 00 00 20 20     .p.p...  .. ..  
    3dde:	fe fe 0c 30 c0 fe fe 20 20 00 00 00 20 20 fc fe     ...0...  ...  ..
    3dee:	02 02 02 fe fc 00 20 20 20 20 20 00 fe fe 22 3e     ......     ...">
    3dfe:	1c 20 20 00 00 00 fc fe 02 02 02 fe fc 00 00 20     .  ............ 
    3e0e:	20 20 20 20 40 40 fe fe 12 32 fe cc 20 20 00 00         @@...2..  ..
    3e1e:	20 20 9c 3e 32 f2 e4 00 20 20 20 00 02 02 fe fe       .>2...   .....
    3e2e:	02 02 00 00 20 20 00 00 fe fe 00 00 00 fe fe 00     ....  ..........
    3e3e:	20 20 20 20 20 00 0e 7e e0 e0 7e 0e 00 00 20 20          ..~..~...  
    3e4e:	00 00 06 3e f8 c0 3e 3e c0 f8 3e 06 00 00 20 20     ...>..>>..>...  
    3e5e:	00 00 20 20 00 00 86 ce 78 78 ce 86 20 20 00 00     ..  ....xx..  ..
    3e6e:	20 20 06 1e f8 f8 1e 06 00 00 20 20 00 00 82 e2       ........  ....
    3e7e:	7a 1e 06 20 20 20 20 20 fe fe 02 e0 e0 80 03 0c     z..     ........
    3e8e:	70 80 00 00 00 00 20 c0 02 fe fe 80 e0 e0 10 0c     p..... .........
    3e9e:	02 0c 10 00 00 00 00 00 00 00 00 00 00 00 80 80     ................
    3eae:	80 80 80 80 01 02 00 00 c8 e8 28 f8 f0 00 20 20     ..........(...  
    3ebe:	20 20 fe fe 08 f8 f0 20 20 20 20 00 f0 f8 08 08       .....    .....
    3ece:	00 20 20 20 f0 f8 08 fe fe 00 20 20 20 20 f0 f8     .   ......    ..
    3ede:	28 38 30 00 20 20 20 20 fc fe 0a 20 20 00 b0 f8     (80.    ...  ...
    3eee:	48 78 38 08 c0 e0 a0 e0 60 00 fe fe 08 f8 f0 20     Hx8.....`...... 
    3efe:	20 00 20 20 fb fb 20 20 fb fb e0 60 fe fe 60 f8      .  ..  ...`..`.
    3f0e:	98 20 20 00 20 20 fe fe 20 20 f8 f8 08 f8 f0 08     .  .  ..  ......
    3f1e:	f8 f0 20 20 00 20 20 00 20 20 f8 f8 08 f8 f0 20     ..  .  .  ..... 
    3f2e:	20 00 20 20 f0 f8 08 f8 f0 00 20 20 20 00 f8 f8      .  ......   ...
    3f3e:	08 f8 f0 e0 e0 20 20 00 f0 f8 08 f8 f8 00 20 20     .....  .......  
    3f4e:	e0 e0 f8 f8 08 20 20 00 30 78 e8 c8 20 20 20 00     .....  .0x..   .
    3f5e:	fc fc 08 00 20 20 f8 f8 00 f8 f8 00 20 20 20 20     ....  ......    
    3f6e:	38 f8 80 f8 38 00 20 20 20 00 38 f8 c0 38 38 c0     8...8.   .8..88.
    3f7e:	f8 38 00 20 20 00 00 20 20 00 98 f8 60 f8 98 20     .8.  ..  ...`.. 
    3f8e:	20 00 20 20 38 f8 80 f8 38 00 c0 e0 20 00 88 e8      .  8...8... ...
    3f9e:	78 18 20 20 20 20 fc de 02 60 e0 80 fe e0 02 de     x.    ...`......
    3fae:	fc 20 80 e0 60 00 10 08 18 10 08 00 00 00 00 00     . ..`...........
    3fbe:	fe 02 6a 3a 02 fe 20 20 20 20 20 20                 ..j:..      

00003fca <_ZL10Callibri11>:
    3fca:	13 22 0a 0b 20 60 02 01 03 06 04 08 07 01 02 02     .".. `..........
    3fda:	05 05 02 03 01 05 05 05 05 05 05 05 05 05 05 05     ................
    3fea:	01 02 05 05 05 04 09 07 05 05 06 04 04 06 06 01     ................
    3ffa:	03 05 04 08 06 06 05 07 05 04 05 06 07 0b 06 05     ................
    400a:	06 02 05 02 05 06 02 05 05 04 05 05 04 05 05 01     ................
    401a:	02 04 01 08 05 05 05 05 03 04 04 05 05 09 05 05     ................
    402a:	03 03 01 03 05 06 00 00 00 00 7e 20 0e 00 0e 00     ..........~ ....
    403a:	00 00 40 e8 5e e8 5e 08 00 20 00 20 00 00 8c 12     ..@.^.^.. . ....
    404a:	23 c4 00 60 20 00 0c 12 d2 2c d0 2c 22 c0 00 20     #..` ....,.,".. 
    405a:	00 00 00 20 20 00 c0 2c 12 32 cc c0 20 00 20 20     ...  ..,.2.. .  
    406a:	20 00 00 20 0e 00 f8 06 20 c0 06 f8 c0 20 14 08      .. .... .... ..
    407a:	3e 08 14 00 00 00 00 00 20 20 f8 20 20 00 00 00     >.......  .  ...
    408a:	00 00 00 00 80 60 20 20 20 00 00 00 00 20 00 80     .....`   .... ..
    409a:	70 0c 03 c0 20 00 00 00 fc 02 02 02 fc 00 20 20     p... .........  
    40aa:	20 00 04 02 fe 00 00 20 20 20 20 20 04 82 42 22      ......     ..B"
    40ba:	1c 20 20 20 20 20 84 12 12 12 ec 00 20 20 20 00     .     ......   .
    40ca:	60 58 46 fe 40 00 00 00 20 00 9e 12 12 12 e2 00     `XF.@... .......
    40da:	20 20 20 00 f8 14 12 12 e2 00 20 20 20 00 02 82        .......   ...
    40ea:	62 1a 06 00 20 00 00 00 ec 12 12 12 ec 00 20 20     b... .........  
    40fa:	20 00 1c 22 22 a2 7c 20 20 20 00 00 08 20 00 08      .."".|   ... ..
    410a:	80 60 20 20 50 50 88 00 00 00 00 00 50 50 50 50     .`  PP......PPPP
    411a:	50 00 00 00 00 00 88 50 50 20 20 00 00 00 00 00     P......PP  .....
    412a:	02 72 12 0c 00 20 00 00 f0 08 64 92 8a 4a ba 84     .r... ....d..J..
    413a:	78 00 20 40 40 40 40 00 00 00 80 60 58 46 58 60     x. @@@@....`XFX`
    414a:	80 20 00 00 00 00 00 20 fe 12 12 1c e0 20 20 20     . ..... .....   
    415a:	20 00 fc 02 02 02 84 00 20 20 20 00 fe 02 02 02      .......   .....
    416a:	84 78 20 20 20 20 00 00 fe 12 12 12 20 20 20 20     .x    ......    
    417a:	fe 12 12 12 20 00 00 00 78 84 02 22 22 e4 00 00     .... ...x..""...
    418a:	20 20 20 00 fe 10 10 10 10 fe 20 00 00 00 00 20        ....... .... 
    419a:	fe 20 00 00 fe 20 20 00 fe 10 28 c4 02 20 00 00     . ...  ...(.. ..
    41aa:	00 20 fe 00 00 00 20 20 20 20 fe 06 78 80 80 78     . ....    ..x..x
    41ba:	06 fe 20 00 00 20 20 00 00 20 fe 06 18 60 80 fe     .. ..  .. ...`..
    41ca:	20 00 00 00 20 20 fc 02 02 02 02 fc 00 20 20 20      ...  .......   
    41da:	20 00 fe 22 22 22 1c 20 00 00 00 00 fc 02 02 02      ..""". ........
    41ea:	02 fc 00 00 20 20 20 20 40 40 fe 22 22 62 9c 20     ....    @@.""b. 
    41fa:	00 00 00 20 8c 12 22 c4 00 20 20 00 02 02 fe 02     ... .."..  .....
    420a:	02 00 00 20 00 00 fe 00 00 00 00 fe 00 20 20 20     ... .........   
    421a:	20 00 06 18 60 80 60 18 06 00 00 00 20 00 00 00      ...`.`..... ...
    422a:	06 78 80 60 18 06 18 60 80 78 06 00 00 20 00 00     .x.`...`.x... ..
    423a:	00 00 00 20 00 00 02 cc 30 30 cc 02 20 00 00 00     ... ....00.. ...
    424a:	00 20 06 18 e0 18 06 00 00 20 00 00 82 42 22 12     . ....... ...B".
    425a:	0a 06 20 20 20 20 20 20 fe 02 e0 80 03 0c 70 80     ..      ......p.
    426a:	00 00 00 00 20 c0 02 fe 80 e0 10 0c 02 0c 10 00     .... ...........
	...
    4282:	00 00 80 80 80 80 80 80 01 02 00 00 c8 28 28 28     .............(((
    4292:	f0 00 20 20 20 20 fe 08 08 08 f0 20 20 20 20 00     ..    .....    .
    42a2:	f0 08 08 08 00 20 20 20 f0 08 08 08 fe 00 20 20     .....   ......  
    42b2:	20 20 f0 28 28 28 30 00 20 20 20 20 08 fc 0a 0a       .(((0.    ....
    42c2:	00 20 00 00 b0 48 48 38 08 c0 a0 a0 a0 40 fe 10     . ...HH8.....@..
    42d2:	08 08 f0 20 00 00 00 20 fa 20 00 fa 80 60 fe 20     ... ... . ...`. 
    42e2:	d0 08 20 00 00 20 fe 20 f8 10 08 08 f0 08 08 f0     .. .. . ........
    42f2:	20 00 00 00 20 00 00 20 f8 10 08 08 f0 20 00 00      ... .. ..... ..
    4302:	00 20 f0 08 08 08 f0 00 20 20 20 00 f8 08 08 08     . ......   .....
    4312:	f0 e0 20 20 20 00 f0 08 08 08 f8 00 20 20 20 e0     ..   .......   .
    4322:	f8 08 08 20 00 00 30 28 48 c8 20 20 20 00 08 fc     ... ..0(H.   ...
    4332:	08 08 00 00 20 20 f8 00 00 80 f8 00 20 20 00 20     ....  ......  . 
    4342:	18 60 80 60 18 00 00 20 00 00 18 60 80 60 18 60     .`.`... ...`.`.`
    4352:	80 60 18 00 00 20 00 00 00 20 00 00 08 90 60 90     .`... ... ....`.
    4362:	08 20 00 00 00 20 18 60 80 60 18 00 c0 20 00 00     . ... .`.`... ..
    4372:	88 68 18 20 20 20 20 dc 02 00 60 80 fe e0 02 dc     .h.    ...`.....
    4382:	20 80 60 00 10 08 18 10 08 00 00 00 00 00 fe 02      .`.............
    4392:	0a 7a 02 fe 20 20 20 20 20 20                       .z..      

0000439c <_ZL10Corsiva_12>:
    439c:	16 3a 0a 0b 20 60 03 02 02 06 05 07 09 01 03 04     .:.. `..........
    43ac:	02 05 02 03 01 05 05 04 05 04 05 06 05 05 05 05     ................
    43bc:	02 03 05 05 05 04 07 07 07 06 08 07 07 07 0a 05     ................
    43cc:	06 09 07 09 0a 06 07 09 09 06 08 08 08 0b 09 09     ................
    43dc:	07 03 03 04 03 06 02 04 04 04 06 04 06 06 04 03     ................
    43ec:	04 06 03 06 04 04 05 05 04 04 04 04 06 08 07 05     ................
    43fc:	06 03 01 04 05 06 00 00 00 00 00 00 80 3e 00 00     .............>..
    440c:	08 06 00 00 a0 78 ae 78 2e 08 00 00 00 00 00 00     .....x.x........
    441c:	80 8c f2 bf 62 00 20 00 00 00 1c 92 7e 0c e2 90     ....b. .....~...
    442c:	70 00 00 00 00 00 00 00 70 c8 a8 b8 6c be 02 c2     p.......p...l...
    443c:	01 00 00 00 00 00 00 20 00 00 08 00 e0 18 06 60     ....... .......`
    444c:	80 00 00 00 c3 3c 40 20 00 00 0c 0f 00 00 10 10     .....<@ ........
    445c:	7c 10 10 00 00 00 00 00 00 80 40 20 20 20 20 00     |.........@    .
    446c:	00 00 80 00 00 c0 30 0c 03 60 00 00 00 00 78 84     ......0..`....x.
    447c:	82 42 3c 00 00 00 00 00 80 88 fc 86 00 00 00 00     .B<.............
    448c:	c0 c4 a2 92 4e 00 00 00 00 00 c0 80 da 76 00 00     ....N........v..
    449c:	00 00 20 30 a8 7e 02 00 00 00 00 00 80 80 84 4a     .. 0.~.........J
    44ac:	32 02 00 00 00 00 00 00 70 ac 94 72 02 00 00 00     2.......p..r....
    44bc:	00 00 c4 32 0a 06 02 00 00 00 00 00 e0 ac 92 6a     ...2...........j
    44cc:	06 00 00 00 00 00 80 9c 52 72 1c 00 00 00 00 00     ........Rr......
    44dc:	80 08 00 00 00 80 08 40 20 00 30 30 48 48 48 00     .......@ .00HHH.
    44ec:	00 00 00 00 28 28 28 28 28 00 00 00 00 00 48 48     ....(((((.....HH
    44fc:	48 30 30 00 00 00 00 00 80 36 12 0c 00 00 00 00     H00......6......
    450c:	70 cc b4 aa ba 62 1c 00 00 00 00 00 00 00 00 80     p....b..........
    451c:	4c 32 2e fe 82 20 00 00 00 00 00 00 38 24 86 fa     L2... ......8$..
    452c:	8e 8a 76 00 00 00 00 00 00 00 f0 8c 04 02 82 0c     ..v.............
    453c:	00 20 20 20 00 00 38 4c 86 ea 9a 82 46 3c 00 00     .   ..8L....F<..
    454c:	00 00 00 00 00 00 38 84 e2 9e 92 ba c6 00 00 00     ......8.........
    455c:	00 00 00 00 1c 86 e2 9e 12 3a 06 00 00 00 00 00     .........:......
    456c:	00 00 70 8c 84 82 d2 32 16 00 80 80 c0 20 00 00     ..p....2..... ..
    457c:	c0 8c c2 3a 16 90 f8 86 01 03 00 00 00 00 00 00     ...:............
    458c:	00 00 00 00 80 c0 fa 06 02 00 00 00 00 00 00 00     ................
    459c:	0c c2 3a 06 60 40 40 20 00 00 8c 82 f2 1e 78 88     ..:.`@@ ......x.
    45ac:	06 02 02 00 00 00 00 00 20 40 40 40 80 c0 b8 84     ........ @@@....
    45bc:	82 82 c0 00 00 00 00 00 00 00 80 9c 62 1e f8 60     ............b..`
    45cc:	90 fc 0e 00 00 00 00 00 00 00 00 00 80 0c e2 12     ................
    45dc:	0e f0 70 0c 02 02 20 20 00 00 00 00 00 00 00 00     ..p...  ........
    45ec:	78 c4 82 82 46 3c 00 00 00 00 00 00 38 cc 86 fa     x...F<......8...
    45fc:	92 12 0c 00 00 00 00 00 00 00 78 c4 82 82 42 26     ..........x...B&
    460c:	1c 00 00 00 00 00 20 60 c0 80 80 40 38 a4 86 fa     ...... `...@8...
    461c:	32 d2 0c 00 00 00 00 00 00 00 00 60 40 40 80 00     2..........`@@..
    462c:	0c 92 e2 0e 00 20 20 20 00 00 1c 86 82 f2 8e 02     .....   ........
    463c:	02 03 00 00 00 00 00 00 00 00 0c 7a 86 80 80 40     ...........z...@
    464c:	30 0f 00 00 00 00 00 00 00 00 0c 06 fe 42 20 10     0............B .
    465c:	0c 03 00 00 00 00 00 00 00 00 0c 06 fe 32 08 04     .............2..
    466c:	fe 20 10 08 07 00 00 00 00 00 00 00 00 00 00 00     . ..............
    467c:	00 80 40 22 1e f4 82 01 01 20 20 00 00 00 00 00     ..@".....  .....
    468c:	00 00 1c 04 82 c6 bc 8c 02 02 01 00 00 00 00 00     ................
    469c:	00 00 00 00 80 c0 a6 92 8a 86 c2 00 00 00 00 00     ................
    46ac:	00 00 00 f0 0f c0 a0 00 07 fc 80 00 00 60 00 00     .............`..
    46bc:	f1 0f 80 e0 00 00 04 02 04 00 00 00 00 00 00 00     ................
    46cc:	00 00 40 40 40 40 40 40 01 02 00 00 e0 90 c8 b8     ..@@@@@@........
    46dc:	00 00 00 00 e0 9e 49 39 00 00 00 00 e0 90 88 48     ......I9.......H
    46ec:	00 00 00 00 e0 90 48 f8 4e 01 00 00 00 00 00 00     ......H.N.......
    46fc:	f0 b0 a8 58 00 00 00 00 00 90 78 16 01 01 40 20     ...X......x...@ 
    470c:	00 00 00 00 00 e0 90 88 e8 18 e0 80 80 c0 60 00     ..............`.
    471c:	e0 1e d1 b9 00 00 00 00 e0 38 02 00 00 00 00 90     .........8......
    472c:	78 02 80 60 00 00 e0 3e e9 19 00 00 00 00 00 60     x..`...>.......`
    473c:	40 40 e0 9c 42 00 00 00 c8 38 d0 38 f0 98 00 00     @@..B....8.8....
    474c:	00 00 00 00 e8 18 d0 b8 00 00 00 00 f0 88 c8 38     ...............8
    475c:	00 00 00 00 88 f8 90 48 38 e0 80 00 00 00 e0 90     .......H8.......
    476c:	88 e8 18 00 80 c0 a0 00 c8 38 10 08 00 00 00 00     .........8......
    477c:	c0 98 e8 08 00 00 00 00 e8 9c 88 40 00 00 00 00     ...........@....
    478c:	e8 98 e0 98 00 00 00 00 10 08 f8 88 60 18 00 00     ............`...
    479c:	00 00 00 00 10 08 f8 88 40 f8 40 38 00 00 00 00     ........@.@8....
    47ac:	00 00 00 00 80 d0 58 f0 10 08 00 00 00 00 00 20     ......X........ 
    47bc:	40 60 10 18 f0 c0 38 80 40 20 00 00 80 d8 a8 98     @`....8.@ ......
    47cc:	d8 08 00 00 00 00 00 00 a0 d8 07 e0 80 00 ff e0     ................
    47dc:	00 00 d1 2f 80 c0 20 00 08 08 18 10 10 00 00 00     .../.. .........
    47ec:	00 00 ff 81 81 81 81 ff 00 00 00 00 00 00           ..............

000047fa <_ZL13Arial_bold_14>:
    47fa:	22 08 0d 0e 20 60 04 02 05 06 07 08 09 02 03 03     "... `..........
    480a:	05 08 02 04 02 04 07 04 07 07 07 07 07 07 07 07     ................
    481a:	02 02 07 07 07 08 0e 09 08 08 08 07 07 09 08 02     ................
    482a:	07 08 07 0b 08 09 07 09 09 07 08 08 09 0d 07 08     ................
    483a:	08 04 04 04 06 08 03 07 07 06 07 07 05 07 07 02     ................
    484a:	03 06 02 0a 07 07 07 07 05 06 05 07 07 0b 06 07     ................
    485a:	05 05 01 05 07 08 00 00 00 00 00 00 00 00 fe fe     ................
    486a:	18 18 1e 1e 00 1e 1e 00 00 00 00 00 90 f8 9e 90     ................
    487a:	f8 9e 1c 00 00 1c 00 00 18 3c 26 ff 66 cc 88 04     .........<&.f...
    488a:	0c 18 3c 18 0c 04 1c 22 1c c0 30 8e 40 80 00 00     ..<...."..0.@...
    489a:	18 04 00 0c 10 0c 80 cc 7e 72 f2 de 0c 80 00 0c     ........~r......
    48aa:	1c 10 10 10 1c 0c 1c 10 1e 1e 00 00 f0 fc 06 1c     ................
    48ba:	7c c0 06 fc f0 c0 7c 1c 14 14 0e 14 14 00 00 00     |.....|.........
    48ca:	00 00 60 60 60 fc fc 60 60 60 00 00 00 0c 0c 00     ..```..```......
    48da:	00 00 00 00 58 38 c0 c0 c0 c0 00 00 00 00 00 00     ....X8..........
    48ea:	18 18 00 c0 38 06 18 04 00 00 f8 fc 0e 06 0e fc     ....8...........
    48fa:	f8 04 0c 1c 18 1c 0c 04 18 0c fe fe 00 00 1c 1c     ................
    490a:	18 1c 86 c6 66 3e 1c 18 1c 1c 18 18 18 18 88 8c     ....f>..........
    491a:	06 26 26 fe dc 04 0c 1c 18 18 0c 04 c0 e0 b8 8c     .&&.............
    492a:	fe fe 80 04 04 04 04 1c 1c 04 70 7e 3e 36 36 f6     ..........p~>66.
    493a:	c6 0c 1c 18 18 18 0c 04 f8 fc 6e 66 66 ee cc 04     ..........nff...
    494a:	0c 18 18 18 1c 0c 06 06 06 e6 76 1e 06 00 00 1c     ..........v.....
    495a:	1c 00 00 00 9c fe 66 66 66 fe 9c 0c 1c 18 18 18     ......fff.......
    496a:	1c 0c 3c 7e 66 66 66 fc f8 0c 1c 18 18 1c 0c 04     ..<~fff.........
    497a:	18 18 18 18 18 18 58 38 60 60 f0 f0 98 98 0c 00     ......X8``......
    498a:	00 00 00 04 04 0c d8 d8 d8 d8 d8 d8 d8 00 00 00     ................
    499a:	00 00 00 00 0c 98 98 f0 f0 60 60 0c 04 04 00 00     .........``.....
    49aa:	00 00 08 0c 06 c6 e6 76 3c 18 00 00 00 18 18 00     .......v<.......
    49ba:	00 00 e0 30 08 c4 f6 3a 1a 1a f2 fa 7e 04 08 f0     ...0...:....~...
    49ca:	0c 30 60 4c 9c 98 98 8c 9c 9c 90 48 4c 20 00 c0     .0`L.......HL ..
    49da:	f8 be 86 be f8 c0 00 18 1c 04 04 04 04 04 1c 18     ................
    49ea:	fe fe 66 66 66 66 fe dc 1c 1c 18 18 18 18 1c 0c     ..ffff..........
    49fa:	f8 fc 0e 06 06 0e 9c 08 04 0c 1c 18 18 1c 0c 04     ................
    4a0a:	fe fe 06 06 06 0e fc f8 1c 1c 18 18 18 1c 0c 04     ................
    4a1a:	fe fe 66 66 66 66 66 1c 1c 18 18 18 18 18 fe fe     ..fffff.........
    4a2a:	66 66 66 66 06 1c 1c 00 00 00 00 00 f8 fc 0e 06     ffff............
    4a3a:	06 c6 ce dc c8 04 0c 1c 18 18 18 18 0c 04 fe fe     ................
    4a4a:	60 60 60 60 fe fe 1c 1c 00 00 00 00 1c 1c fe fe     ````............
    4a5a:	1c 1c 80 80 00 00 00 fe fe 0c 1c 18 18 18 1c 0c     ................
    4a6a:	fe fe 60 30 78 ec 86 02 1c 1c 00 00 00 04 1c 18     ..`0x...........
    4a7a:	fe fe 00 00 00 00 00 1c 1c 18 18 18 18 18 fe fe     ................
    4a8a:	0e 7c e0 00 e0 7c 0e fe fe 1c 1c 00 00 0c 1c 0c     .|...|..........
    4a9a:	00 00 1c 1c fe fe 1c 78 e0 80 fe fe 1c 1c 00 00     .......x........
    4aaa:	04 0c 1c 1c f8 fc 0e 06 06 06 0e fc f8 04 0c 1c     ................
    4aba:	18 18 18 1c 0c 04 fe fe 66 66 66 7e 3c 1c 1c 00     ........fff~<...
    4aca:	00 00 00 00 f8 fc 0e 06 86 06 0e fc f8 04 0c 1c     ................
    4ada:	18 18 1c 0c 1c 24 fe fe 66 66 e6 e6 be 1c 00 1c     .....$..ff......
    4aea:	1c 00 00 00 0c 1c 18 10 3c 7e 66 66 66 ee cc 0c     ........<~fff...
    4afa:	1c 18 18 18 1c 0c 06 06 06 fe fe 06 06 06 00 00     ................
    4b0a:	00 1c 1c 00 00 00 fe fe 00 00 00 00 fe fe 04 0c     ................
    4b1a:	1c 18 18 1c 0c 04 02 1e fc e0 00 e0 fc 1e 02 00     ................
    4b2a:	00 00 1c 1c 1c 00 00 00 06 fe f8 00 f0 fe 0e fe     ................
    4b3a:	f0 00 f8 fe 06 00 00 1c 1c 1c 00 00 00 1c 1c 1c     ................
    4b4a:	00 00 06 0e f8 f0 f8 0e 06 18 1c 04 00 04 1c 18     ................
    4b5a:	06 0e 38 f0 f0 38 0e 06 00 00 00 1c 1c 00 00 00     ..8..8..........
    4b6a:	06 06 86 e6 76 1e 0e 06 18 1c 1c 18 18 18 18 18     ....v...........
    4b7a:	fe fe 06 06 fc fc c0 c0 06 38 c0 00 00 00 04 18     .........8......
    4b8a:	06 06 fe fe c0 c0 fc fc 20 38 0e 0e 38 20 00 00     ........ 8..8 ..
	...
    4ba6:	80 80 80 80 80 80 80 80 02 06 04 00 00 00 10 98     ................
    4bb6:	d8 58 f8 f0 00 0c 1c 18 18 0c 1c 10 fe fe 30 18     .X............0.
    4bc6:	38 f0 e0 1c 1c 0c 18 1c 0c 04 e0 f0 18 18 38 30     8.............80
    4bd6:	04 0c 18 18 1c 0c e0 f0 38 18 30 fe fe 04 0c 1c     ........8.0.....
    4be6:	18 0c 1c 1c e0 f0 d8 d8 d8 f0 e0 04 0c 18 18 18     ................
    4bf6:	18 08 18 fc fe 1a 1a 00 1c 1c 00 00 e0 f0 38 18     ..............8.
    4c06:	30 f8 f8 64 ec dc d8 cc fc 7c fe fe 30 18 18 f8     0..d.....|..0...
    4c16:	f0 1c 1c 00 00 00 1c 1c fa fa 1c 1c 00 fa fa c0     ................
    4c26:	fc 7c fe fe e0 f0 98 08 1c 1c 00 04 1c 18 fe fe     .|..............
    4c36:	1c 1c f8 f8 10 18 f8 f0 18 18 f8 f0 1c 1c 00 00     ................
    4c46:	1c 1c 00 00 1c 1c f8 f8 30 18 18 f8 f0 1c 1c 00     ........0.......
    4c56:	00 00 1c 1c e0 f0 38 18 38 f0 e0 04 0c 1c 18 1c     ......8.8.......
    4c66:	0c 04 f8 f8 30 18 38 f0 e0 fc fc 0c 18 1c 0c 04     ....0.8.........
    4c76:	e0 f0 38 18 30 f8 f8 04 0c 1c 18 0c fc fc f8 f8     ..8.0...........
    4c86:	30 18 18 1c 1c 00 00 00 70 f8 d8 d8 d8 90 08 18     0.......p.......
    4c96:	18 18 1c 0c 18 fc fe 18 18 00 0c 1c 18 18 f8 f8     ................
    4ca6:	00 00 00 f8 f8 0c 1c 18 18 0c 1c 1c 38 f8 c0 00     ............8...
    4cb6:	c0 f8 38 00 00 1c 1c 1c 00 00 18 f8 e0 00 f0 38     ..8............8
    4cc6:	f0 00 e0 f8 18 00 00 1c 1c 0c 00 0c 1c 1c 00 00     ................
    4cd6:	18 38 e0 e0 38 18 18 1c 04 04 1c 18 18 f8 e0 00     .8..8...........
    4ce6:	e0 f8 18 00 84 fc f8 3c 04 00 18 98 d8 78 38 1c     .......<.....x8.
    4cf6:	1c 18 18 18 80 fc 7e 06 06 00 7c fc c0 c0 fe fc     ......~...|.....
    4d06:	06 06 7e fc 80 c0 c0 fc 7c 00 60 30 30 70 60 60     ..~.....|.`00p``
    4d16:	30 00 00 00 00 00 00 00 fe 02 02 02 02 02 02 fe     0...............
    4d26:	1c 10 10 10 10 10 10 1c                             ........

00004d2e <_ZL7Arial14>:
    4d2e:	1e 6c 0d 0e 20 60 02 01 03 08 07 0a 08 01 03 03     .l.. `..........
    4d3e:	05 07 01 04 01 04 06 03 06 06 07 06 06 06 06 06     ................
    4d4e:	01 01 06 06 06 06 0d 09 07 08 08 07 07 09 07 01     ................
    4d5e:	05 08 07 09 07 09 07 09 08 07 07 07 09 0d 08 09     ................
    4d6e:	08 02 04 02 05 08 02 06 06 05 06 06 04 06 06 01     ................
    4d7e:	02 06 01 09 06 06 06 06 04 05 04 06 07 09 06 07     ................
    4d8e:	06 03 01 03 07 07 00 00 00 00 fe 14 1e 00 1e 00     ................
    4d9e:	00 00 90 90 f8 96 90 f8 96 90 00 1c 00 00 1c 00     ................
    4dae:	00 00 18 24 22 ff 42 42 84 08 10 10 3c 10 08 04     ...$".BB....<...
    4dbe:	1c 22 22 1c c0 30 8c 42 40 80 00 00 10 0c 00 00     .""..0.B@.......
    4dce:	0c 10 10 0c 80 5c 22 62 92 0c 80 00 0c 10 10 10     .....\"b........
    4dde:	10 0c 08 10 1e 00 f0 0c 02 1c 60 80 02 0c f0 80     ..........`.....
    4dee:	60 1c 04 14 0e 14 04 00 00 00 00 00 40 40 40 f8     `...........@@@.
    4dfe:	40 40 40 00 00 00 0c 00 00 00 00 70 80 80 80 80     @@@........p....
    4e0e:	00 00 00 00 00 10 00 c0 38 06 18 04 00 00 fc 02     ........8.......
    4e1e:	02 02 02 fc 0c 10 10 10 10 0c 08 04 fe 00 00 1c     ................
    4e2e:	0c 02 02 82 42 3c 10 18 14 10 10 10 0c 02 22 22     ....B<........""
    4e3e:	22 dc 0c 10 10 10 10 0c 80 40 30 08 04 fe 00 04     "........@0.....
    4e4e:	04 04 04 04 1c 04 38 16 12 12 12 e2 0c 10 10 10     ......8.........
    4e5e:	18 04 f8 44 22 22 22 c4 0c 10 10 10 10 0c 02 02     ...D""".........
    4e6e:	02 e2 1a 06 00 00 1c 00 00 00 dc 22 22 22 22 dc     ..........."""".
    4e7e:	0c 10 10 10 10 0c 3c 42 42 42 22 fc 08 10 10 10     ......<BBB".....
    4e8e:	08 04 08 10 08 70 40 a0 a0 10 10 08 00 00 00 04     .....p@.........
    4e9e:	04 08 90 90 90 90 90 90 00 00 00 00 00 00 08 10     ................
    4eae:	10 a0 a0 40 08 04 04 00 00 00 0c 02 82 42 22 1c     ...@.........B".
    4ebe:	00 00 14 00 00 00 e0 18 04 c4 22 12 12 12 a2 72     .........."....r
    4ece:	04 08 f0 0c 30 40 4c 90 90 90 88 9c 90 50 4c 20     ....0@L......PL 
    4ede:	00 80 e0 9c 82 9c e0 80 00 18 04 00 00 00 00 00     ................
    4eee:	04 18 fe 22 22 22 22 22 dc 1c 10 10 10 10 10 0c     ..."""""........
    4efe:	f8 04 02 02 02 02 04 08 04 08 10 10 10 10 08 04     ................
    4f0e:	fe 02 02 02 02 02 04 f8 1c 10 10 10 10 10 08 04     ................
    4f1e:	fe 22 22 22 22 22 22 1c 10 10 10 10 10 10 fe 22     .""""""........"
    4f2e:	22 22 22 22 02 1c 00 00 00 00 00 00 f8 04 02 02     """"............
    4f3e:	02 42 42 44 c8 04 08 10 10 10 10 10 08 04 fe 20     .BBD........... 
    4f4e:	20 20 20 20 fe 1c 00 00 00 00 00 1c fe 1c 00 00         ............
    4f5e:	00 00 fe 0c 10 10 10 0c fe 80 40 20 50 88 04 02     ..........@ P...
    4f6e:	1c 00 00 00 00 04 08 10 fe 00 00 00 00 00 00 1c     ................
    4f7e:	10 10 10 10 10 10 fe 0c 30 c0 00 c0 30 0c fe 1c     ........0...0...
    4f8e:	00 00 04 18 04 00 00 1c fe 04 18 60 80 00 fe 1c     ...........`....
    4f9e:	00 00 00 04 08 1c f8 04 02 02 02 02 02 04 f8 04     ................
    4fae:	08 10 10 10 10 10 08 04 fe 42 42 42 42 42 3c 1c     .........BBBBB<.
    4fbe:	00 00 00 00 00 00 f8 04 02 02 02 02 02 04 f8 04     ................
    4fce:	08 10 10 10 14 08 1c 10 fe 42 42 42 c2 42 42 3c     .........BBB.BB<
    4fde:	1c 00 00 00 00 04 08 10 1c 22 22 22 42 42 8c 0c     ........."""BB..
    4fee:	10 10 10 10 10 0c 02 02 02 fe 02 02 02 00 00 00     ................
    4ffe:	1c 00 00 00 fe 00 00 00 00 00 fe 04 08 10 10 10     ................
    500e:	08 04 06 18 60 80 00 80 60 18 06 00 00 00 04 18     ....`...`.......
    501e:	04 00 00 00 06 38 c0 00 c0 3c 02 3c c0 00 c0 38     .....8...<.<...8
    502e:	06 00 00 04 18 04 00 00 00 04 18 04 00 00 02 0c     ................
    503e:	90 60 60 90 0c 02 10 0c 00 00 00 04 0c 10 02 04     .``.............
    504e:	18 20 c0 20 18 04 02 00 00 00 00 1c 00 00 00 00     . . ............
    505e:	00 02 82 42 22 1a 06 02 10 18 14 10 10 10 10 10     ...B"...........
    506e:	fe 02 fc 80 06 38 c0 00 00 00 04 18 02 fe 80 fc     .....8..........
    507e:	20 1c 02 1c 20 00 00 00 00 00 00 00 00 00 00 00      ... ...........
    508e:	00 00 80 80 80 80 80 80 80 80 02 04 00 00 10 88     ................
    509e:	48 48 48 f0 0c 10 10 10 08 1c fe 10 08 08 08 f0     HHH.............
    50ae:	1c 08 10 10 10 0c f0 08 08 08 10 0c 10 10 10 08     ................
    50be:	f0 08 08 08 10 fe 0c 10 10 10 08 1c f0 48 48 48     .............HHH
    50ce:	48 70 0c 10 10 10 10 08 08 fc 0a 0a 00 1c 00 00     Hp..............
    50de:	f0 08 08 08 10 f8 4c 90 90 90 88 7c fe 10 08 08     ......L....|....
    50ee:	08 f0 1c 00 00 00 00 1c fa 1c 00 fa 80 7c fe 80     .............|..
    50fe:	40 a0 10 08 1c 00 00 00 0c 10 fe 1c f8 10 08 08     @...............
    510e:	f0 10 08 08 f0 1c 00 00 00 1c 00 00 00 1c f8 10     ................
    511e:	08 08 08 f0 1c 00 00 00 00 1c f0 08 08 08 08 f0     ................
    512e:	0c 10 10 10 10 0c f8 10 08 08 08 f0 fc 08 10 10     ................
    513e:	10 0c f0 08 08 08 10 f8 0c 10 10 10 08 fc f8 10     ................
    514e:	08 08 1c 00 00 00 30 48 48 48 90 08 10 10 10 0c     ......0HHH......
    515e:	08 fe 08 08 00 1c 10 10 f8 00 00 00 00 f8 0c 10     ................
    516e:	10 10 08 1c 18 60 80 00 80 60 18 00 00 04 18 04     .....`...`......
    517e:	00 00 18 e0 00 e0 18 e0 00 e0 18 00 04 18 04 00     ................
    518e:	04 18 04 00 08 30 c0 c0 30 08 10 0c 00 00 0c 10     .....0..0.......
    519e:	18 60 80 00 80 60 18 00 80 8c 70 0c 00 00 08 08     .`...`....p.....
    51ae:	88 68 18 08 10 18 14 10 10 10 80 7c 02 00 7c 80     .h.........|..|.
    51be:	fe fc 02 7c 80 80 7c 00 40 20 20 60 40 40 20 00     ...|..|.@  `@@ .
    51ce:	00 00 00 00 00 00 fc 04 04 04 04 04 fc 1c 10 10     ................
    51de:	10 10 10 1c                                         ....

000051e2 <_ZL7Iain5x7>:
    51e2:	09 9d 05 07 20 60 01 01 03 05 05 05 05 01 02 02     .... `..........
    51f2:	05 03 01 02 01 03 04 02 04 04 04 04 04 04 04 04     ................
    5202:	01 01 03 03 03 04 05 04 04 04 04 04 04 04 04 03     ................
    5212:	04 05 03 05 05 05 04 05 04 04 03 04 05 05 05 05     ................
    5222:	05 02 03 02 03 03 01 04 04 04 04 04 04 04 04 01     ................
    5232:	03 04 01 05 04 04 04 04 04 04 04 04 03 05 03 04     ................
    5242:	04 03 01 03 05 00 00 be 0e 00 0e 28 fe 28 fe 28     ...........(.(.(
    5252:	48 54 fe 54 24 46 26 10 c8 c4 6c 92 aa 44 a0 06     HT.T$F&...l..D..
    5262:	3c 42 42 3c 00 54 38 54 00 10 38 10 c0 10 10 40     <BB<.T8T..8....@
    5272:	c0 38 06 7c 82 82 7c 04 fe c4 a2 92 8c 82 92 92     .8.|..|.........
    5282:	6c 30 28 24 fe 4e 92 92 72 78 94 92 60 02 e2 12     l0($.N..rx..`...
    5292:	0e 6c 92 92 6c 0c 92 52 3c 6c 6c 10 28 44 28 28     .l..l..R<ll.(D((
    52a2:	28 44 28 10 04 a2 12 0c 64 92 f2 82 7c fc 22 22     (D(.....d...|.""
    52b2:	fc fe 92 92 6c 7c 82 82 44 fe 82 82 7c fe 92 92     ....l|..D...|...
    52c2:	82 fe 12 12 02 7c 82 a2 64 fe 10 10 fe 82 fe 82     .....|..d.......
    52d2:	40 80 80 7e fe 10 28 44 82 fe 80 80 fe 04 08 04     @..~..(D........
    52e2:	fe fe 08 10 20 fe 7c 82 82 82 7c fe 12 12 0c 7c     .... .|...|....|
    52f2:	82 a2 42 bc fe 32 52 8c 4c 92 92 64 02 fe 02 7e     ..B..2R.L..d...~
    5302:	80 80 7e 3e 40 80 40 3e fe 40 30 40 fe c6 28 10     ..~>@.@>.@0@..(.
    5312:	28 c6 06 08 f0 08 06 c2 a2 92 8a 86 fe 82 06 38     (..............8
    5322:	c0 82 fe 04 02 04 80 80 80 06 40 a8 a8 70 7e 90     ..........@..p~.
    5332:	88 70 70 88 88 50 70 88 90 7e 70 a8 a8 30 10 fc     .pp..Pp..~p..0..
    5342:	12 04 10 a8 a8 78 fe 10 08 f0 fa 40 80 7a fe 20     .....x.....@.z. 
    5352:	50 88 fe f8 08 30 08 f0 f8 10 08 f0 70 88 88 70     P....0......p..p
    5362:	f8 28 28 10 10 28 28 f8 f8 10 08 10 90 a8 a8 48     .((..((........H
    5372:	08 7e 88 40 78 80 40 f8 78 80 78 78 80 60 80 78     .~.@x.@.x.xx.`.x
    5382:	d8 20 d8 18 a0 a0 78 c8 a8 a8 98 10 6c 82 ee 82     . ....x.....l...
    5392:	6c 10 10 08 10 20 10                                l.... .

00005399 <_ZL9System5x7>:
    5399:	00 00 05 07 20 61 00 00 00 00 00 00 00 5f 00 00     .... a......._..
    53a9:	00 07 00 07 00 14 7f 14 7f 14 24 2a 7f 2a 12 23     ..........$*.*.#
    53b9:	13 08 64 62 36 49 55 22 50 00 05 03 00 00 00 1c     ..db6IU"P.......
    53c9:	22 41 00 00 41 22 1c 00 08 2a 1c 2a 08 08 08 3e     "A..A"...*.*...>
    53d9:	08 08 00 50 30 00 00 08 08 08 08 08 00 60 60 00     ...P0........``.
    53e9:	00 20 10 08 04 02 3e 51 49 45 3e 00 42 7f 40 00     . ....>QIE>.B.@.
    53f9:	42 61 51 49 46 21 41 45 4b 31 18 14 12 7f 10 27     BaQIF!AEK1.....'
    5409:	45 45 45 39 3c 4a 49 49 30 01 71 09 05 03 36 49     EEE9<JII0.q...6I
    5419:	49 49 36 06 49 49 29 1e 00 36 36 00 00 00 56 36     II6.II)..66...V6
    5429:	00 00 00 08 14 22 41 14 14 14 14 14 41 22 14 08     ....."A.....A"..
    5439:	00 02 01 51 09 06 32 49 79 41 3e 7e 11 11 11 7e     ...Q..2IyA>~...~
    5449:	7f 49 49 49 36 3e 41 41 41 22 7f 41 41 22 1c 7f     .III6>AAA".AA"..
    5459:	49 49 49 41 7f 09 09 01 01 3e 41 41 51 32 7f 08     IIIA.....>AAQ2..
    5469:	08 08 7f 00 41 7f 41 00 20 40 41 3f 01 7f 08 14     ....A.A. @A?....
    5479:	22 41 7f 40 40 40 40 7f 02 04 02 7f 7f 04 08 10     "A.@@@@.........
    5489:	7f 3e 41 41 41 3e 7f 09 09 09 06 3e 41 51 21 5e     .>AAA>.....>AQ!^
    5499:	7f 09 19 29 46 46 49 49 49 31 01 01 7f 01 01 3f     ...)FFIII1.....?
    54a9:	40 40 40 3f 1f 20 40 20 1f 7f 20 18 20 7f 63 14     @@@?. @ .. . .c.
    54b9:	08 14 63 03 04 78 04 03 61 51 49 45 43 00 00 7f     ..c..x..aQIEC...
    54c9:	41 41 02 04 08 10 20 41 41 7f 00 00 04 02 01 02     AA.... AA.......
    54d9:	04 40 40 40 40 40 00 01 02 04 00 20 54 54 54 78     .@@@@@..... TTTx
    54e9:	7f 48 44 44 38 38 44 44 44 20 38 44 44 48 7f 38     .HDD88DDD 8DDH.8
    54f9:	54 54 54 18 08 7e 09 01 02 08 14 54 54 3c 7f 08     TTT..~.....TT<..
    5509:	04 04 78 00 44 7d 40 00 20 40 44 3d 00 00 7f 10     ..x.D}@. @D=....
    5519:	28 44 00 41 7f 40 00 7c 04 18 04 78 7c 08 04 04     (D.A.@.|...x|...
    5529:	78 38 44 44 44 38 7c 14 14 14 08 08 14 14 18 7c     x8DDD8|........|
    5539:	7c 08 04 04 08 48 54 54 54 20 04 3f 44 40 20 3c     |....HTTT .?D@ <
    5549:	40 40 20 7c 1c 20 40 20 1c 3c 40 30 40 3c 44 28     @@ |. @ .<@0@<D(
    5559:	10 28 44 0c 50 50 50 3c 44 64 54 4c 44 00 08 36     .(D.PPP<DdTLD..6
    5569:	41 00 00 00 7f 00 00 00 41 36 08 00 08 08 2a 1c     A.......A6....*.
    5579:	08 08 1c 2a 08 08 00 06 09 09 06                    ...*.......

00005584 <_ZL12ZevvPeep8x16>:
    5584:	00 00 07 0e 20 60 00 00 00 00 00 00 00 00 00 00     .... `..........
    5594:	00 00 00 00 00 00 fc 00 00 00 00 00 00 0d 00 00     ................
    55a4:	00 00 00 3c 00 3c 00 00 00 00 00 00 00 00 00 00     ...<.<..........
    55b4:	20 f8 20 20 f8 20 00 01 07 01 01 07 01 00 60 90      .  . ........`.
    55c4:	f8 90 10 00 00 04 04 0f 04 03 00 00 18 24 98 60     .............$.`
    55d4:	10 0c 00 0c 02 01 06 09 06 00 30 c8 c8 30 00 00     ..........0..0..
    55e4:	00 07 08 08 09 06 09 00 00 00 3c 00 00 00 00 00     ..........<.....
	...
    55fc:	e0 18 04 02 00 00 00 03 0c 10 20 00 02 04 18 e0     .......... .....
    560c:	00 00 00 20 10 0c 03 00 00 00 80 a0 c0 c0 a0 80     ... ............
    561c:	00 00 02 01 01 02 00 00 80 80 80 f0 80 80 80 00     ................
    562c:	00 00 07 00 00 00 00 00 00 00 00 00 00 20 18 0c     ............. ..
    563c:	04 00 00 00 80 80 80 80 80 80 00 00 00 00 00 00     ................
	...
    5654:	00 00 08 1c 08 00 00 00 00 00 80 60 18 06 00 18     ...........`....
    5664:	06 01 00 00 00 00 f0 08 84 44 08 f0 00 03 04 08     .........D......
    5674:	08 04 03 00 20 10 08 fc 00 00 00 00 00 00 0f 00     .... ...........
    5684:	00 00 18 04 04 84 44 38 00 0c 0a 09 08 08 08 00     ......D8........
    5694:	08 04 44 44 44 b8 00 06 08 08 08 08 07 00 80 60     ..DDD..........`
    56a4:	18 04 fc 00 00 01 01 01 01 0f 01 00 7c 24 24 24     ............|$$$
    56b4:	24 c4 00 06 08 08 08 08 07 00 f8 84 44 44 44 88     $...........DDD.
    56c4:	00 07 08 08 08 08 07 00 04 04 04 c4 34 0c 00 00     ............4...
    56d4:	0c 03 00 00 00 00 b8 44 44 44 44 b8 00 07 08 08     .......DDDD.....
    56e4:	08 08 07 00 78 84 84 84 44 f8 00 04 08 08 08 08     ....x...D.......
    56f4:	07 00 00 20 70 20 00 00 00 00 08 1c 08 00 00 00     ... p ..........
    5704:	00 20 70 20 00 00 00 20 18 0c 04 00 00 00 80 40     . p ... .......@
    5714:	20 10 08 00 00 00 01 02 04 08 00 00 40 40 40 40      ...........@@@@
    5724:	40 40 00 02 02 02 02 02 02 00 00 08 10 20 40 80     @@........... @.
    5734:	00 00 08 04 02 01 00 00 04 84 44 24 18 00 00 00     ..........D$....
    5744:	0d 00 00 00 00 00 f0 08 c4 24 24 f8 00 03 04 09     .........$$.....
    5754:	0a 0a 03 00 f8 84 84 84 84 f8 00 0f 00 00 00 00     ................
    5764:	0f 00 fc 44 44 44 78 80 00 0f 08 08 08 08 07 00     ...DDDx.........
    5774:	f8 04 04 04 04 18 00 07 08 08 08 08 06 00 fc 04     ................
    5784:	04 04 08 f0 00 0f 08 08 08 04 03 00 fc 44 44 44     .............DDD
    5794:	44 04 00 0f 08 08 08 08 08 00 fc 44 44 44 44 04     D..........DDDD.
    57a4:	00 0f 00 00 00 00 00 00 f8 04 04 84 84 98 00 07     ................
    57b4:	08 08 08 08 07 00 fc 40 40 40 40 fc 00 0f 00 00     .......@@@@.....
    57c4:	00 00 0f 00 04 04 fc 04 04 00 00 08 08 0f 08 08     ................
    57d4:	00 00 00 00 04 04 04 fc 00 06 08 08 08 08 07 00     ................
    57e4:	fc 40 20 d0 08 04 00 0f 00 00 00 03 0c 00 fc 00     .@ .............
    57f4:	00 00 00 00 00 0f 08 08 08 08 08 00 fc 18 60 80     ..............`.
    5804:	60 18 fc 0f 00 00 01 00 00 0f fc 18 60 80 00 fc     `...........`...
    5814:	00 0f 00 00 01 06 0f 00 f8 04 04 04 04 f8 00 07     ................
    5824:	08 08 08 08 07 00 fc 84 84 84 84 78 00 0f 00 00     ...........x....
    5834:	00 00 00 00 f8 04 04 04 04 f8 00 07 08 08 0e 18     ................
    5844:	17 00 fc 84 84 84 84 78 00 0f 00 01 02 04 08 00     .......x........
    5854:	38 44 44 84 84 08 00 04 08 08 08 08 07 00 04 04     8DD.............
    5864:	04 fc 04 04 04 00 00 00 0f 00 00 00 fc 00 00 00     ................
    5874:	00 fc 00 07 08 08 08 08 07 00 fc 00 00 00 00 fc     ................
    5884:	00 00 03 0c 0c 03 00 00 fc 00 00 c0 00 00 fc 03     ................
    5894:	0c 03 00 03 0c 03 0c 30 c0 c0 30 0c 00 0c 03 00     .......0..0.....
    58a4:	00 03 0c 00 3c 40 80 80 40 3c 00 00 00 00 0f 00     ....<@..@<......
    58b4:	00 00 04 04 84 44 34 0c 00 0c 0a 09 08 08 08 00     .....D4.........
    58c4:	00 00 fe 02 02 02 00 00 00 3f 20 20 20 00 06 18     .........?   ...
    58d4:	60 80 00 00 00 00 00 00 01 06 18 00 02 02 02 fe     `...............
    58e4:	00 00 00 20 20 20 3f 00 00 00 10 08 04 04 08 10     ...   ?.........
	...
    5900:	00 00 00 20 20 20 20 20 20 00 00 04 0c 18 20 00     ...      ..... .
	...
    5918:	00 a0 a0 a0 a0 c0 00 07 08 08 08 04 0f 00 fc 40     ...............@
    5928:	20 20 20 c0 00 0f 04 08 08 08 07 00 c0 20 20 20        ..........   
    5938:	20 40 00 07 08 08 08 08 04 00 c0 20 20 20 40 fc      @.........   @.
    5948:	00 07 08 08 08 04 0f 00 c0 20 20 20 20 c0 00 07     .........    ...
    5958:	09 09 09 09 09 00 80 f8 84 84 84 08 00 00 0f 00     ................
    5968:	00 00 00 00 c0 20 20 20 40 e0 00 23 44 44 44 42     .....   @..#DDDB
    5978:	3f 00 fc 40 20 20 20 c0 00 0f 00 00 00 00 0f 00     ?..@   .........
    5988:	00 20 20 ec 00 00 00 00 00 00 0f 00 00 00 00 00     .  .............
    5998:	20 20 ec 00 00 10 20 20 20 1f 00 00 fc 00 80 40       ....   ......@
    59a8:	20 00 00 0f 01 01 02 04 08 00 00 fc 00 00 00 00      ...............
    59b8:	00 00 07 08 08 08 00 00 e0 20 20 c0 20 20 c0 0f     .........  .  ..
    59c8:	00 00 03 00 00 0f e0 40 20 20 20 c0 00 0f 00 00     .......@   .....
    59d8:	00 00 0f 00 c0 20 20 20 20 c0 00 07 08 08 08 08     .....    .......
    59e8:	07 00 e0 40 20 20 20 c0 00 7f 02 04 04 04 03 00     ...@   .........
    59f8:	c0 20 20 20 40 e0 00 03 04 04 04 02 7f 00 e0 40     .   @..........@
    5a08:	20 20 20 40 00 0f 00 00 00 00 00 00 c0 20 20 20        @.........   
    5a18:	20 40 00 04 09 09 09 09 06 00 20 f8 20 20 20 00      @........ .   .
    5a28:	00 00 07 08 08 08 04 00 e0 00 00 00 00 e0 00 07     ................
    5a38:	08 08 08 04 0f 00 e0 00 00 00 00 e0 00 00 03 0c     ................
    5a48:	0c 03 00 00 e0 00 00 80 00 00 e0 07 08 04 03 04     ................
    5a58:	08 07 20 40 80 80 40 20 00 08 04 02 02 04 08 00     .. @..@ ........
    5a68:	e0 00 00 00 00 e0 00 23 44 44 44 42 3f 00 20 20     .......#DDDB?.  
    5a78:	20 20 a0 60 00 08 0c 0a 09 08 08 00 00 80 80 7c       .`...........|
    5a88:	02 02 00 00 00 00 1f 20 20 00 00 00 fe 00 00 00     .......  .......
    5a98:	00 00 00 1f 00 00 00 00 02 02 7c 80 80 00 00 20     ..........|.... 
    5aa8:	20 1f 00 00 00 00 30 08 08 10 20 20 18 00 00 00      .....0...  ....
    5ab8:	00 00 00 00 fe fe fe fe fe fe fe 7f 7f 7f 7f 7f     ................
    5ac8:	7f 7f                                               ..

00005aca <_ZL13X11fixed7x14B>:
    5aca:	00 00 06 0e 20 60 00 00 00 00 00 00 00 00 00 00     .... `..........
    5ada:	00 00 00 00 fc fc 00 00 00 00 0d 0d 00 00 00 1e     ................
    5aea:	1e 00 1e 1e 00 00 00 00 00 00 20 fc fc fc fc 20     .......... .... 
    5afa:	01 0f 0f 0f 0f 01 30 48 fc fc 88 30 06 08 1f 1f     ......0H...0....
    5b0a:	08 07 18 3c a4 78 1c 0c 0c 0e 07 09 0f 06 00 b8     ...<.x..........
    5b1a:	fc 44 fc b8 07 0f 08 07 0f 09 00 00 1e 1e 00 00     .D..............
    5b2a:	00 00 00 00 00 00 00 e0 f8 1c 06 02 00 03 0f 1c     ................
    5b3a:	30 20 00 02 06 1c f8 e0 00 20 30 1c 0f 03 8c 50     0 ....... 0....P
    5b4a:	fc fc 50 8c 01 00 01 01 00 01 80 80 f0 f0 80 80     ..P.............
    5b5a:	00 00 07 07 00 00 00 00 00 00 00 00 00 00 24 3c     ..............$<
    5b6a:	1c 00 80 80 80 80 80 80 00 00 00 00 00 00 00 00     ................
    5b7a:	00 00 00 00 00 00 0c 0c 00 00 00 00 c0 f0 3e 0e     ..............>.
    5b8a:	38 3e 07 01 00 00 f8 fc 04 04 fc f8 07 0f 08 08     8>..............
    5b9a:	0f 07 10 18 fc fc 00 00 08 08 0f 0f 08 08 18 1c     ................
    5baa:	04 c4 fc 38 0c 0e 0b 09 08 08 18 1c 44 44 fc b8     ...8........DD..
    5bba:	06 0e 08 08 0f 07 80 c0 60 f8 fc 00 03 03 02 0f     ........`.......
    5bca:	0f 02 7c 7c 24 24 e4 c4 06 0e 08 08 0f 07 f0 f8     ..||$$..........
    5bda:	4c 44 dc 98 07 0f 08 08 0f 07 1c 1c c4 f4 3c 0c     LD............<.
    5bea:	00 00 0f 0f 00 00 38 fc c4 c4 fc 38 07 0f 08 08     ......8....8....
    5bfa:	0f 07 78 fc 84 84 fc f8 06 0e 08 0c 07 03 00 00     ..x.............
    5c0a:	30 30 00 00 00 00 06 06 00 00 00 00 00 30 30 00     00...........00.
    5c1a:	00 00 12 1e 0e 00 80 c0 60 30 18 08 00 01 03 06     ........`0......
    5c2a:	0c 08 40 40 40 40 40 40 02 02 02 02 02 02 08 18     ..@@@@@@........
    5c3a:	30 60 c0 80 08 0c 06 03 01 00 18 1c c4 e4 3c 18     0`............<.
    5c4a:	00 00 0d 0d 00 00 f0 f8 ec f4 1c f8 03 07 0d 0b     ................
    5c5a:	0a 0b f8 fc 0c 0c fc f8 0f 0f 01 01 0f 0f fc fc     ................
    5c6a:	44 44 fc 98 0f 0f 08 08 0f 07 f8 fc 04 04 1c 18     DD..............
    5c7a:	07 0f 08 08 0e 06 fc fc 04 0c f8 f0 0f 0f 08 0c     ................
    5c8a:	07 03 fc fc 44 44 44 04 0f 0f 08 08 08 08 fc fc     ....DDD.........
    5c9a:	44 44 44 04 0f 0f 00 00 00 00 f8 fc 04 84 9c 98     DDD.............
    5caa:	07 0f 08 08 0f 07 fc fc 40 40 fc fc 0f 0f 00 00     ........@@......
    5cba:	0f 0f 04 04 fc fc 04 04 08 08 0f 0f 08 08 00 00     ................
    5cca:	00 00 fc fc 06 0e 08 0c 07 03 fc fc f0 98 0c 04     ................
    5cda:	0f 0f 01 03 0e 0c fc fc 00 00 00 00 0f 0f 08 08     ................
    5cea:	08 08 fc f8 60 60 f8 fc 0f 0f 00 00 0f 0f fc fc     ....``..........
    5cfa:	70 80 fc fc 0f 0f 00 03 0f 0f f8 fc 04 04 fc f8     p...............
    5d0a:	07 0f 08 08 0f 07 fc fc 84 84 fc 78 0f 0f 00 00     ...........x....
    5d1a:	00 00 f8 fc 04 04 fc f8 07 0f 09 0a 1f 37 fc fc     .............7..
    5d2a:	44 c4 fc 38 0f 0f 00 00 0f 0f 18 3c e4 c4 1c 18     D..8.......<....
    5d3a:	06 0e 08 09 0f 06 04 04 fc fc 04 04 00 00 0f 0f     ................
    5d4a:	00 00 fc fc 00 00 fc fc 07 0f 08 08 0f 07 fc fc     ................
    5d5a:	00 00 fc fc 01 07 0e 0e 07 01 fc fc 80 80 fc fc     ................
    5d6a:	07 0f 07 07 0f 07 0c 3c f0 f0 3c 0c 0c 0f 03 03     .......<..<.....
    5d7a:	0f 0c 1c 7c e0 e0 7c 1c 00 00 0f 0f 00 00 04 04     ...|..|.........
    5d8a:	c4 f4 3c 0c 0c 0f 0b 08 08 08 00 fe fe 02 02 02     ..<.............
    5d9a:	00 3f 3f 20 20 20 0e 3e f0 c0 00 00 00 00 01 07     .??   .>........
    5daa:	3e 38 00 02 02 02 fe fe 00 20 20 20 3f 3f 04 06     >8.......   ??..
    5dba:	03 03 06 04 00 00 00 00 00 00 00 00 00 00 00 00     ................
    5dca:	30 30 30 30 30 30 00 02 06 0c 08 00 00 00 00 00     000000..........
    5dda:	00 00 40 60 20 a0 e0 c0 06 0f 09 08 0f 0f fc fc     ..@` ...........
    5dea:	20 20 e0 c0 0f 0f 08 08 0f 07 c0 e0 20 20 60 40       ..........  `@
    5dfa:	07 0f 08 08 0c 04 c0 e0 20 20 fc fc 07 0f 08 08     ........  ......
    5e0a:	0f 0f c0 e0 20 20 e0 c0 07 0f 09 09 0d 05 40 40     ....  ........@@
    5e1a:	f8 fc 4c 48 00 00 0f 0f 00 00 c0 e0 20 e0 c0 60     ..LH........ ..`
    5e2a:	19 3f 2a 2b 39 10 fc fc 20 20 e0 c0 0f 0f 00 00     .?*+9...  ......
    5e3a:	0f 0f 00 00 ec ec 00 00 00 00 0f 0f 00 00 00 00     ................
    5e4a:	00 00 ec ec 00 10 30 20 3f 1f fc fc 80 c0 60 00     ......0 ?.....`.
    5e5a:	0f 0f 01 03 06 0c 00 00 fc fc 00 00 00 00 0f 0f     ................
    5e6a:	00 00 e0 e0 c0 e0 e0 c0 0f 0f 07 07 0f 0f e0 e0     ................
    5e7a:	20 20 e0 c0 0f 0f 00 00 0f 0f c0 e0 20 20 e0 c0       ..........  ..
    5e8a:	07 0f 08 08 0f 07 e0 e0 20 20 e0 c0 3f 3f 08 08     ........  ..??..
    5e9a:	0f 07 c0 e0 20 20 e0 e0 07 0f 08 08 3f 3f e0 e0     ....  ......??..
    5eaa:	20 20 e0 c0 0f 0f 00 00 00 00 40 e0 a0 20 60 40       ........@.. `@
    5eba:	04 0c 09 0b 0e 04 20 20 fc fc 20 20 00 00 07 0f     ......  ..  ....
    5eca:	08 08 e0 e0 00 00 e0 e0 07 0f 08 08 0f 0f e0 e0     ................
    5eda:	00 00 e0 e0 00 03 0f 0f 03 00 e0 e0 80 80 e0 e0     ................
    5eea:	07 0f 07 07 0f 07 60 e0 80 80 e0 60 0c 0e 03 03     ......`....`....
    5efa:	0e 0c 60 e0 80 00 e0 e0 10 31 27 3e 1f 01 20 20     ..`......1'>..  
    5f0a:	20 a0 e0 60 0c 0e 0b 09 08 08 00 80 fc 7e 02 02      ..`.........~..
    5f1a:	00 00 1f 3f 20 20 00 00 fe fe 00 00 00 00 3f 3f     ...?  ........??
    5f2a:	00 00 00 02 02 7e fc 80 00 20 20 3f 1f 00 1c 06     .....~...  ?....
    5f3a:	0c 0c 18 0e 00 00 00 00 00 00 ff ff ff ff ff ff     ................
    5f4a:	3f 3f 3f 3f 3f 3f                                   ??????

00005f50 <_ZL12X11fixed7x14>:
    5f50:	00 00 06 0e 20 60 00 00 00 00 00 00 00 00 00 00     .... `..........
    5f60:	00 00 00 00 00 fc 00 00 00 00 00 0d 00 00 00 00     ................
    5f70:	1e 00 1e 00 00 00 00 00 00 00 00 20 fc 20 fc 20     ........... . . 
    5f80:	00 01 0f 01 0f 01 30 48 88 fc 88 30 06 08 08 1f     ......0H...0....
    5f90:	08 07 18 24 a4 78 10 0c 0c 02 07 09 09 06 00 b8     ...$.x..........
    5fa0:	c4 44 38 80 07 08 08 05 06 09 00 00 00 1e 00 00     .D8.............
	...
    5fb8:	e0 18 04 02 00 00 03 0c 10 20 00 02 04 18 e0 00     ......... ......
    5fc8:	00 20 10 0c 03 00 00 20 40 f0 40 20 00 02 01 07     . ..... @.@ ....
    5fd8:	01 02 00 80 80 f0 80 80 00 00 00 07 00 00 00 00     ................
    5fe8:	00 00 00 00 00 00 24 1c 00 00 00 80 80 80 80 80     ......$.........
	...
    6004:	00 00 08 1c 08 00 00 00 00 e0 18 06 30 0c 03 00     ............0...
    6014:	00 00 f0 08 04 04 08 f0 03 04 08 08 04 03 00 10     ................
    6024:	08 fc 00 00 00 08 08 0f 08 08 18 04 04 04 c4 38     ...............8
    6034:	08 0c 0a 09 08 08 04 04 44 64 54 8c 06 08 08 08     ........DdT.....
    6044:	08 07 00 c0 30 08 fc 00 03 02 02 02 0f 02 7c 24     ....0.........|$
    6054:	24 24 24 c4 06 08 08 08 08 07 f0 88 44 44 44 80     $$$.........DDD.
    6064:	07 08 08 08 08 07 04 04 04 c4 34 0c 00 0c 03 00     ..........4.....
    6074:	00 00 18 a4 44 44 a4 18 07 08 08 08 08 07 78 84     ....DD........x.
    6084:	84 84 44 f8 06 08 08 08 04 03 00 00 20 70 20 00     ..D......... p .
    6094:	00 00 04 0e 04 00 00 00 60 60 00 00 00 00 12 0e     ........``......
    60a4:	00 00 00 80 40 20 10 08 00 00 01 02 04 08 20 20     ....@ ........  
    60b4:	20 20 20 20 01 01 01 01 01 01 00 08 10 20 40 80         ......... @.
    60c4:	00 08 04 02 01 00 18 04 04 c4 24 18 00 00 00 0d     ..........$.....
    60d4:	00 00 f0 08 e4 14 14 f8 03 04 09 0a 0a 0b f0 88     ................
    60e4:	84 84 88 f0 0f 00 00 00 00 0f fc 44 44 44 a8 10     ...........DDD..
    60f4:	0f 08 08 08 04 03 f8 04 04 04 04 18 07 08 08 08     ................
    6104:	08 06 fc 04 04 04 08 f0 0f 08 08 08 04 03 fc 44     ...............D
    6114:	44 44 04 04 0f 08 08 08 08 08 fc 44 44 44 04 04     DD.........DDD..
    6124:	0f 00 00 00 00 00 f8 04 04 84 84 98 07 08 08 08     ................
    6134:	04 0f fc 40 40 40 40 fc 0f 00 00 00 00 0f 00 04     ...@@@@.........
    6144:	04 fc 04 04 00 08 08 0f 08 08 00 00 00 04 fc 04     ................
    6154:	06 08 08 08 07 00 fc 40 a0 10 08 04 0f 00 00 01     .......@........
    6164:	02 0c fc 00 00 00 00 00 0f 08 08 08 08 08 fc 18     ................
    6174:	60 60 18 fc 0f 00 00 00 00 0f fc 30 40 80 00 fc     ``.........0@...
    6184:	0f 00 00 00 03 0f f8 04 04 04 04 f8 07 08 08 08     ................
    6194:	08 07 fc 84 84 84 84 78 0f 00 00 00 00 00 f8 04     .......x........
    61a4:	04 04 04 f8 07 09 09 0a 1c 27 fc 84 84 84 84 78     .........'.....x
    61b4:	0f 00 00 01 02 0c 38 44 44 84 84 18 06 08 08 08     ......8DD.......
    61c4:	08 07 04 04 04 fc 04 04 00 00 00 0f 00 00 fc 00     ................
    61d4:	00 00 00 fc 07 08 08 08 08 07 3c c0 00 00 c0 3c     ..........<....<
    61e4:	00 01 0e 0e 01 00 00 fc 00 00 00 fc 00 07 08 07     ................
    61f4:	08 07 0c 30 c0 c0 30 0c 0c 03 00 00 03 0c 00 1c     ...0..0.........
    6204:	60 80 60 1c 00 00 00 0f 00 00 04 04 84 64 14 0c     `.`..........d..
    6214:	0c 0b 08 08 08 08 00 00 fe 02 02 02 00 00 3f 20     ..............? 
    6224:	20 20 06 18 e0 00 00 00 00 00 00 03 0c 30 00 02       ...........0..
    6234:	02 02 fe 00 00 20 20 20 3f 00 08 04 02 02 04 08     .....   ?.......
	...
    6250:	20 20 20 20 20 20 00 00 02 04 08 00 00 00 00 00           ..........
    6260:	00 00 40 20 20 20 20 c0 06 09 09 09 09 0f fc 40     ..@    ........@
    6270:	20 20 20 c0 0f 04 08 08 08 07 c0 20 20 20 20 40        ........    @
    6280:	07 08 08 08 08 04 c0 20 20 20 40 fc 07 08 08 08     .......   @.....
    6290:	04 0f c0 20 20 20 20 c0 07 09 09 09 09 05 40 40     ...    .......@@
    62a0:	f8 44 44 08 00 00 0f 00 00 00 c0 20 20 20 c0 20     .DD........   . 
    62b0:	19 26 2a 2a 29 10 fc 40 20 20 20 c0 0f 00 00 00     .&**)..@   .....
    62c0:	00 0f 00 00 20 ec 00 00 00 08 08 0f 08 08 00 00     .... ...........
    62d0:	00 00 20 ec 00 18 20 20 20 1f fc 00 80 40 20 00     .. ...   ....@ .
    62e0:	0f 01 01 02 04 08 00 00 04 fc 00 00 00 08 08 0f     ................
    62f0:	08 08 00 e0 20 c0 20 c0 00 0f 00 07 00 0f e0 40     .... . ........@
    6300:	20 20 20 c0 0f 00 00 00 00 0f c0 20 20 20 20 c0        ........    .
    6310:	07 08 08 08 08 07 e0 40 20 20 20 c0 3f 04 08 08     .......@   .?...
    6320:	08 07 c0 20 20 20 40 e0 07 08 08 08 04 3f e0 40     ...   @......?.@
    6330:	20 20 20 c0 0f 00 00 00 00 00 40 a0 20 20 20 40        .......@.   @
    6340:	04 08 09 09 0a 04 20 20 fc 20 20 00 00 00 07 08     ......  .  .....
    6350:	08 04 e0 00 00 00 00 e0 07 08 08 08 04 0f 00 e0     ................
    6360:	00 00 00 e0 00 00 03 0c 03 00 00 e0 00 80 00 e0     ................
    6370:	00 07 08 07 08 07 60 80 00 00 80 60 0c 02 01 01     ......`....`....
    6380:	02 0c e0 00 00 00 00 e0 13 24 24 24 22 1f 20 20     .........$$$".  
    6390:	20 a0 60 20 08 0c 0b 08 08 08 00 00 80 7c 02 02      .` .........|..
    63a0:	00 00 00 1f 20 20 00 00 00 fe 00 00 00 00 00 3f     ....  .........?
    63b0:	00 00 00 02 02 7c 80 00 00 20 20 1f 00 00 0c 02     .....|...  .....
    63c0:	04 08 10 0c 00 00 00 00 00 00 fe fe fe fe fe fe     ................
    63d0:	3f 3f 3f 3f 3f 3f                                   ??????

000063d6 <_ZL8Stang5x7>:
    63d6:	00 00 05 07 20 60 00 00 00 00 00 00 00 5f 00 00     .... `......._..
    63e6:	00 07 00 07 00 14 7f 14 7f 14 24 2a 7f 2a 12 23     ..........$*.*.#
    63f6:	13 08 64 62 36 49 55 22 50 00 05 03 00 00 00 1c     ..db6IU"P.......
    6406:	22 41 00 00 41 22 1c 00 08 2a 1c 2a 08 08 08 3e     "A..A"...*.*...>
    6416:	08 08 00 50 30 00 00 08 08 08 08 08 00 60 60 00     ...P0........``.
    6426:	00 20 10 08 04 02 3e 51 49 45 3e 00 42 7f 40 00     . ....>QIE>.B.@.
    6436:	42 61 51 49 46 21 41 45 4b 31 18 14 12 7f 10 27     BaQIF!AEK1.....'
    6446:	45 45 45 39 3c 4a 49 49 30 01 71 09 05 03 36 49     EEE9<JII0.q...6I
    6456:	49 49 36 06 49 49 29 1e 00 36 36 00 00 00 56 36     II6.II)..66...V6
    6466:	00 00 00 08 14 22 41 14 14 14 14 14 41 22 14 08     ....."A.....A"..
    6476:	00 02 01 51 09 06 32 49 79 41 3e 7e 11 11 11 7e     ...Q..2IyA>~...~
    6486:	7f 49 49 49 36 3e 41 41 41 22 7f 41 41 22 1c 7f     .III6>AAA".AA"..
    6496:	49 49 49 41 7f 09 09 01 01 3e 41 41 51 32 7f 08     IIIA.....>AAQ2..
    64a6:	08 08 7f 00 41 7f 41 00 20 40 41 3f 01 7f 08 14     ....A.A. @A?....
    64b6:	22 41 7f 40 40 40 40 7f 02 04 02 7f 7f 04 08 10     "A.@@@@.........
    64c6:	7f 3e 41 41 41 3e 7f 09 09 09 06 3e 41 51 21 5e     .>AAA>.....>AQ!^
    64d6:	7f 09 19 29 46 46 49 49 49 31 01 01 7f 01 01 3f     ...)FFIII1.....?
    64e6:	40 40 40 3f 1f 20 40 20 1f 7f 20 18 20 7f 63 14     @@@?. @ .. . .c.
    64f6:	08 14 63 03 04 78 04 03 61 51 49 45 43 00 00 7f     ..c..x..aQIEC...
    6506:	41 41 02 04 08 10 20 41 41 7f 00 00 04 02 01 02     AA.... AA.......
    6516:	04 40 40 40 40 40 00 01 02 04 00 20 54 54 54 78     .@@@@@..... TTTx
    6526:	7f 48 44 44 38 38 44 44 44 20 38 44 44 48 7f 38     .HDD88DDD 8DDH.8
    6536:	54 54 54 18 08 7e 09 01 02 08 14 54 54 3c 7f 08     TTT..~.....TT<..
    6546:	04 04 78 00 44 7d 40 00 20 40 44 3d 00 00 7f 10     ..x.D}@. @D=....
    6556:	28 44 00 41 7f 40 00 7c 04 18 04 78 7c 08 04 04     (D.A.@.|...x|...
    6566:	78 38 44 44 44 38 7c 14 14 14 08 08 14 14 18 7c     x8DDD8|........|
    6576:	7c 08 04 04 08 48 54 54 54 20 04 3f 44 40 20 3c     |....HTTT .?D@ <
    6586:	40 40 20 7c 1c 20 40 20 1c 3c 40 30 40 3c 44 28     @@ |. @ .<@0@<D(
    6596:	10 28 44 0c 50 50 50 3c 44 64 54 4c 44 00 08 36     .(D.PPP<DdTLD..6
    65a6:	41 00 00 00 7f 00 00 00 41 36 08 00 0c 02 0c 10     A.......A6......
    65b6:	0c 7f 7f 7f 7f 7f                                   ......

000065bc <_ZL6lcd5x7>:
    65bc:	00 00 05 07 20 60 00 00 00 00 00 00 00 4f 00 00     .... `.......O..
    65cc:	00 07 00 07 00 14 7f 14 7f 14 24 2a 7f 2a 12 23     ..........$*.*.#
    65dc:	13 08 64 62 36 49 55 22 50 00 05 03 00 00 00 1c     ..db6IU"P.......
    65ec:	22 41 00 00 41 22 1c 00 14 08 3e 08 14 08 08 3e     "A..A"....>....>
    65fc:	08 08 00 50 30 00 00 08 08 08 08 08 00 60 60 00     ...P0........``.
    660c:	00 20 10 08 04 02 3e 51 49 45 3e 00 42 7f 40 00     . ....>QIE>.B.@.
    661c:	42 61 51 49 46 21 41 45 4b 31 18 14 12 7f 10 27     BaQIF!AEK1.....'
    662c:	45 45 45 39 3c 4a 49 49 30 01 71 09 05 03 36 49     EEE9<JII0.q...6I
    663c:	49 49 36 06 49 49 29 1e 36 36 00 00 00 56 36 00     II6.II).66...V6.
    664c:	00 00 08 14 22 41 00 14 14 14 14 14 00 41 22 14     ...."A.......A".
    665c:	08 02 01 51 09 06 30 49 79 41 3e 7e 11 11 11 7e     ...Q..0IyA>~...~
    666c:	7f 49 49 49 36 3e 41 41 41 22 7f 41 41 22 1c 7f     .III6>AAA".AA"..
    667c:	49 49 49 41 7f 09 09 09 01 3e 41 49 49 7a 7f 08     IIIA.....>AIIz..
    668c:	08 08 7f 00 41 7f 41 00 20 40 41 3f 01 7f 08 14     ....A.A. @A?....
    669c:	22 41 7f 40 40 40 40 7f 02 0c 02 7f 7f 04 08 10     "A.@@@@.........
    66ac:	7f 3e 41 41 41 3e 7f 09 09 09 06 3e 41 51 21 5e     .>AAA>.....>AQ!^
    66bc:	7f 09 19 29 46 46 49 49 49 31 01 01 7f 01 01 3f     ...)FFIII1.....?
    66cc:	40 40 40 3f 1f 20 40 20 1f 3f 40 30 40 3f 63 14     @@@?. @ .?@0@?c.
    66dc:	08 14 63 07 08 70 08 07 61 51 49 45 43 00 7f 41     ..c..p..aQIEC..A
    66ec:	41 00 02 04 08 10 20 00 41 41 7f 00 04 02 01 02     A..... .AA......
    66fc:	04 40 40 40 40 40 00 01 02 04 00 20 54 54 54 78     .@@@@@..... TTTx
    670c:	7f 50 48 48 30 38 44 44 44 20 38 44 44 48 7f 38     .PHH08DDD 8DDH.8
    671c:	54 54 54 18 08 7e 09 01 02 0c 52 52 52 3e 7f 08     TTT..~....RRR>..
    672c:	04 04 78 00 44 7d 40 00 20 40 44 3d 00 7f 10 28     ..x.D}@. @D=...(
    673c:	44 00 00 41 7f 40 00 78 04 58 44 78 7c 08 04 04     D..A.@.x.XDx|...
    674c:	78 38 44 44 44 38 7c 14 14 14 08 08 14 14 18 7c     x8DDD8|........|
    675c:	7c 08 04 04 08 48 54 54 54 20 04 3f 44 40 20 3c     |....HTTT .?D@ <
    676c:	40 40 20 7c 1c 20 40 20 1c 3c 40 30 40 3c 44 28     @@ |. @ .<@0@<D(
    677c:	10 28 44 0c 50 50 50 3c 44 64 54 4c 44 00 08 36     .(D.PPP<DdTLD..6
    678c:	41 00 00 00 7f 00 00 00 41 36 08 00 0c 02 0c 10     A.......A6......
    679c:	0c 00 00 00 00 00                                   ......

000067a2 <_ZL7font5x7>:
    67a2:	00 00 05 07 20 60 00 00 00 00 00 00 00 5f 00 00     .... `......._..
    67b2:	00 03 00 03 00 14 3e 14 3e 14 24 2a 7f 2a 12 43     ......>.>.$*.*.C
    67c2:	33 08 66 61 36 49 55 22 50 00 05 03 00 00 00 1c     3.fa6IU"P.......
    67d2:	22 41 00 00 41 22 1c 00 14 08 3e 08 14 08 08 3e     "A..A"....>....>
    67e2:	08 08 00 50 30 00 00 08 08 08 08 08 00 60 60 00     ...P0........``.
    67f2:	00 20 10 08 04 02 3e 51 49 45 3e 00 04 02 7f 00     . ....>QIE>.....
    6802:	42 61 51 49 46 22 41 49 49 36 18 14 12 7f 10 27     BaQIF"AII6.....'
    6812:	45 45 45 39 3e 49 49 49 32 01 01 71 09 07 36 49     EEE9>III2..q..6I
    6822:	49 49 36 26 49 49 49 3e 00 36 36 00 00 00 56 36     II6&III>.66...V6
    6832:	00 00 08 14 22 41 00 14 14 14 14 14 00 41 22 14     ...."A.......A".
    6842:	08 02 01 51 09 06 3e 41 59 55 5e 7e 09 09 09 7e     ...Q..>AYU^~...~
    6852:	7f 49 49 49 36 3e 41 41 41 22 7f 41 41 41 3e 7f     .III6>AAA".AAA>.
    6862:	49 49 49 41 7f 09 09 09 01 3e 41 41 49 3a 7f 08     IIIA.....>AAI:..
    6872:	08 08 7f 00 41 7f 41 00 30 40 40 40 3f 7f 08 14     ....A.A.0@@@?...
    6882:	22 41 7f 40 40 40 40 7f 02 0c 02 7f 7f 02 04 08     "A.@@@@.........
    6892:	7f 3e 41 41 41 3e 7f 09 09 09 06 1e 21 21 21 5e     .>AAA>......!!!^
    68a2:	7f 09 09 09 76 26 49 49 49 32 01 01 7f 01 01 3f     ....v&III2.....?
    68b2:	40 40 40 3f 1f 20 40 20 1f 7f 20 10 20 7f 41 22     @@@?. @ .. . .A"
    68c2:	1c 22 41 07 08 70 08 07 61 51 49 45 43 00 7f 41     ."A..p..aQIEC..A
    68d2:	00 00 02 04 08 10 20 00 00 41 7f 00 04 02 01 02     ...... ..A......
    68e2:	04 40 40 40 40 40 00 01 02 04 00 20 54 54 54 78     .@@@@@..... TTTx
    68f2:	7f 44 44 44 38 38 44 44 44 44 38 44 44 44 7f 38     .DDD88DDDD8DDD.8
    6902:	54 54 54 18 04 04 7e 05 05 08 54 54 54 3c 7f 08     TTT...~...TTT<..
    6912:	04 04 78 00 44 7d 40 00 20 40 44 3d 00 7f 10 28     ..x.D}@. @D=...(
    6922:	44 00 00 41 7f 40 00 7c 04 78 04 78 7c 08 04 04     D..A.@.|.x.x|...
    6932:	78 38 44 44 44 38 7c 14 14 14 08 08 14 14 14 7c     x8DDD8|........|
    6942:	00 7c 08 04 04 48 54 54 54 20 04 04 3f 44 44 3c     .|...HTTT ..?DD<
    6952:	40 40 20 7c 1c 20 40 20 1c 3c 40 30 40 3c 44 28     @@ |. @ .<@0@<D(
    6962:	10 28 44 0c 50 50 50 3c 44 64 54 4c 44 00 08 36     .(D.PPP<DdTLD..6
    6972:	41 41 00 00 7f 00 00 41 41 36 08 00 02 01 02 04     AA.....AA6......
    6982:	02 7f 7f 7f 7f 7f                                   ......

00006988 <_ZL14Adafruit128x64>:
    6988:	8e 69 19 80 40 00                                   .i..@.

0000698e <_ZL18Adafruit128x64init>:
    698e:	ae d5 80 a8 3f d3 00 40 8d 14 20 02 a1 c8 da 12     ....?..@.. .....
    699e:	81 7f d9 f1 db 40 a4 a6 af                          .....@...

000069a7 <_ZL12scaledNibble>:
    69a7:	00 03 0c 0f 30 33 3c 3f c0 c3 cc cf f0 f3 fc ff     ....03<?........

000069b7 <digital_pin_to_timer_PGM>:
    69b7:	00 00 00 08 00 02 01 00 00 03 04 07 00 00 00 00     ................
    69c7:	00 00 00 00                                         ....

000069cb <digital_pin_to_bit_mask_PGM>:
    69cb:	01 02 04 08 10 20 40 80 01 02 04 08 10 20 01 02     ..... @...... ..
    69db:	04 08 10 20                                         ... 

000069df <digital_pin_to_port_PGM>:
    69df:	04 04 04 04 04 04 04 04 02 02 02 02 02 02 03 03     ................
    69ef:	03 03 03 03                                         ....

000069f3 <port_to_output_PGM>:
    69f3:	00 00 00 00 25 00 28 00 2b 00 00                    ....%.(.+..

000069fe <__ctors_start>:
    69fe:	9a 35       	cpi	r25, 0x5A	; 90
    6a00:	57 3a       	cpi	r21, 0xA7	; 167

00006a02 <__ctors_end>:
    6a02:	11 24       	eor	r1, r1
    6a04:	1f be       	out	0x3f, r1	; 63
    6a06:	cf ef       	ldi	r28, 0xFF	; 255
    6a08:	d8 e0       	ldi	r29, 0x08	; 8
    6a0a:	de bf       	out	0x3e, r29	; 62
    6a0c:	cd bf       	out	0x3d, r28	; 61

00006a0e <__do_copy_data>:
    6a0e:	13 e0       	ldi	r17, 0x03	; 3
    6a10:	a0 e0       	ldi	r26, 0x00	; 0
    6a12:	b1 e0       	ldi	r27, 0x01	; 1
    6a14:	ea e2       	ldi	r30, 0x2A	; 42
    6a16:	f9 e7       	ldi	r31, 0x79	; 121
    6a18:	02 c0       	rjmp	.+4      	; 0x6a1e <__do_copy_data+0x10>
    6a1a:	05 90       	lpm	r0, Z+
    6a1c:	0d 92       	st	X+, r0
    6a1e:	a0 30       	cpi	r26, 0x00	; 0
    6a20:	b1 07       	cpc	r27, r17
    6a22:	d9 f7       	brne	.-10     	; 0x6a1a <__do_copy_data+0xc>

00006a24 <__do_clear_bss>:
    6a24:	23 e0       	ldi	r18, 0x03	; 3
    6a26:	a0 e0       	ldi	r26, 0x00	; 0
    6a28:	b3 e0       	ldi	r27, 0x03	; 3
    6a2a:	01 c0       	rjmp	.+2      	; 0x6a2e <.do_clear_bss_start>

00006a2c <.do_clear_bss_loop>:
    6a2c:	1d 92       	st	X+, r1

00006a2e <.do_clear_bss_start>:
    6a2e:	a8 3d       	cpi	r26, 0xD8	; 216
    6a30:	b2 07       	cpc	r27, r18
    6a32:	e1 f7       	brne	.-8      	; 0x6a2c <.do_clear_bss_loop>

00006a34 <__do_global_ctors>:
    6a34:	14 e3       	ldi	r17, 0x34	; 52
    6a36:	c1 e0       	ldi	r28, 0x01	; 1
    6a38:	d5 e3       	ldi	r29, 0x35	; 53
    6a3a:	04 c0       	rjmp	.+8      	; 0x6a44 <__do_global_ctors+0x10>
    6a3c:	21 97       	sbiw	r28, 0x01	; 1
    6a3e:	fe 01       	movw	r30, r28
    6a40:	0e 94 8d 3c 	call	0x791a	; 0x791a <__tablejump2__>
    6a44:	cf 3f       	cpi	r28, 0xFF	; 255
    6a46:	d1 07       	cpc	r29, r17
    6a48:	c9 f7       	brne	.-14     	; 0x6a3c <__do_global_ctors+0x8>
    6a4a:	0e 94 e1 35 	call	0x6bc2	; 0x6bc2 <main>
    6a4e:	0c 94 93 3c 	jmp	0x7926	; 0x7926 <_exit>

00006a52 <__bad_interrupt>:
    6a52:	0c 94 00 00 	jmp	0	; 0x0 <__vectors>

00006a56 <_ZN5Print17availableForWriteEv>:
      return write((const uint8_t *)buffer, size);
    }

    // default to zero, meaning "a single write may block"
    // should be overriden by subclasses with buffering
    virtual int availableForWrite() { return 0; }
    6a56:	80 e0       	ldi	r24, 0x00	; 0
    6a58:	90 e0       	ldi	r25, 0x00	; 0
    6a5a:	08 95       	ret

00006a5c <_ZN5Print5flushEv>:
    size_t println(unsigned long, int = DEC);
    size_t println(double, int = 2);
    size_t println(const Printable&);
    size_t println(void);

    virtual void flush() { /* Empty implementation for backward compatibility */ }
    6a5c:	08 95       	ret

00006a5e <setup>:
};
uint8_t nFont = sizeof(fontList)/sizeof(uint8_t*);

SSD1306AsciiWire oled;
//------------------------------------------------------------------------------
void setup() {
    6a5e:	ef 92       	push	r14
    6a60:	ff 92       	push	r15
    6a62:	1f 93       	push	r17
    6a64:	cf 93       	push	r28
    6a66:	df 93       	push	r29
  Wire.begin();     
    6a68:	88 e1       	ldi	r24, 0x18	; 24
    6a6a:	93 e0       	ldi	r25, 0x03	; 3
    6a6c:	0e 94 2d 3a 	call	0x745a	; 0x745a <_ZN7TwoWire5beginEv>
   * @param[in] dev A device initialization structure.
   * @param[in] i2cAddr The I2C address of the display controller.
   */
  void begin(const DevType* dev, uint8_t i2cAddr) {
#if OPTIMIZE_I2C
    m_nData = 0;
    6a70:	10 92 0e 03 	sts	0x030E, r1	; 0x80030e <__data_end+0xe>
#endif  // OPTMIZE_I2C
    m_i2cAddr = i2cAddr;
    6a74:	8c e3       	ldi	r24, 0x3C	; 60
    6a76:	80 93 0d 03 	sts	0x030D, r24	; 0x80030d <__data_end+0xd>
    init(dev);    
    6a7a:	68 e8       	ldi	r22, 0x88	; 136
    6a7c:	79 e6       	ldi	r23, 0x69	; 105
    6a7e:	80 e0       	ldi	r24, 0x00	; 0
    6a80:	93 e0       	ldi	r25, 0x03	; 3
    6a82:	0e 94 e4 37 	call	0x6fc8	; 0x6fc8 <_ZN12SSD1306Ascii4initEPK7DevType>
  void set400kHz() {
#ifdef __AVR__
    // assume prescalar set.
    //  cbi(TWSR, TWPS0);
    //  cbi(TWSR, TWPS1);
    TWBR = ((F_CPU/400000) - 16) / 2;
    6a86:	8c e0       	ldi	r24, 0x0C	; 12
    6a88:	80 93 b8 00 	sts	0x00B8, r24	; 0x8000b8 <__TEXT_REGION_LENGTH__+0x7e00b8>
  oled.begin(&Adafruit128x64, I2C_ADDRESS);
  oled.set400kHz();  
  for (uint8_t i = 0; i < nFont; i++) {
    6a8c:	10 e0       	ldi	r17, 0x00	; 0
  /**
   * @brief Set the current font.
   *
   * @param[in] font Pointer to a font table.
   */
  void setFont(const uint8_t* font) {m_font = font;}
    6a8e:	99 e9       	ldi	r25, 0x99	; 153
    6a90:	e9 2e       	mov	r14, r25
    6a92:	93 e5       	ldi	r25, 0x53	; 83
    6a94:	f9 2e       	mov	r15, r25
    6a96:	80 91 00 01 	lds	r24, 0x0100	; 0x800100 <__data_start>
    6a9a:	18 17       	cp	r17, r24
    6a9c:	d8 f5       	brcc	.+118    	; 0x6b14 <setup+0xb6>
    6a9e:	f0 92 0c 03 	sts	0x030C, r15	; 0x80030c <__data_end+0xc>
    6aa2:	e0 92 0b 03 	sts	0x030B, r14	; 0x80030b <__data_end+0xb>
    oled.setFont(System5x7);
    oled.clear();
    6aa6:	80 e0       	ldi	r24, 0x00	; 0
    6aa8:	93 e0       	ldi	r25, 0x03	; 3
    6aaa:	0e 94 c8 37 	call	0x6f90	; 0x6f90 <_ZN12SSD1306Ascii5clearEv>
    oled.println(fontName[i]);
    6aae:	c1 2f       	mov	r28, r17
    6ab0:	d0 e0       	ldi	r29, 0x00	; 0
    6ab2:	cc 0f       	add	r28, r28
    6ab4:	dd 1f       	adc	r29, r29
    6ab6:	fe 01       	movw	r30, r28
    6ab8:	ef 5c       	subi	r30, 0xCF	; 207
    6aba:	fe 4f       	sbci	r31, 0xFE	; 254
    6abc:	60 81       	ld	r22, Z
    6abe:	71 81       	ldd	r23, Z+1	; 0x01
    6ac0:	80 e0       	ldi	r24, 0x00	; 0
    6ac2:	93 e0       	ldi	r25, 0x03	; 3
    6ac4:	0e 94 35 36 	call	0x6c6a	; 0x6c6a <_ZN5Print7printlnEPKc>
    oled.println();  
    6ac8:	80 e0       	ldi	r24, 0x00	; 0
    6aca:	93 e0       	ldi	r25, 0x03	; 3
    6acc:	0e 94 31 36 	call	0x6c62	; 0x6c62 <_ZN5Print7printlnEv>
    oled.setFont(fontList[i]);
    6ad0:	cf 5f       	subi	r28, 0xFF	; 255
    6ad2:	de 4f       	sbci	r29, 0xFE	; 254
    6ad4:	88 81       	ld	r24, Y
    6ad6:	99 81       	ldd	r25, Y+1	; 0x01
    6ad8:	90 93 0c 03 	sts	0x030C, r25	; 0x80030c <__data_end+0xc>
    6adc:	80 93 0b 03 	sts	0x030B, r24	; 0x80030b <__data_end+0xb>
    oled.println("*+,-./0123456789:");
    6ae0:	61 e6       	ldi	r22, 0x61	; 97
    6ae2:	71 e0       	ldi	r23, 0x01	; 1
    6ae4:	80 e0       	ldi	r24, 0x00	; 0
    6ae6:	93 e0       	ldi	r25, 0x03	; 3
    6ae8:	0e 94 35 36 	call	0x6c6a	; 0x6c6a <_ZN5Print7printlnEPKc>
    oled.println("abcdefghijklmno");
    6aec:	63 e7       	ldi	r22, 0x73	; 115
    6aee:	71 e0       	ldi	r23, 0x01	; 1
    6af0:	80 e0       	ldi	r24, 0x00	; 0
    6af2:	93 e0       	ldi	r25, 0x03	; 3
    6af4:	0e 94 35 36 	call	0x6c6a	; 0x6c6a <_ZN5Print7printlnEPKc>
    oled.println("ABCDEFGHIJKLMNO");
    6af8:	63 e8       	ldi	r22, 0x83	; 131
    6afa:	71 e0       	ldi	r23, 0x01	; 1
    6afc:	80 e0       	ldi	r24, 0x00	; 0
    6afe:	93 e0       	ldi	r25, 0x03	; 3
    6b00:	0e 94 35 36 	call	0x6c6a	; 0x6c6a <_ZN5Print7printlnEPKc>
    delay(10000);    
    6b04:	60 e1       	ldi	r22, 0x10	; 16
    6b06:	77 e2       	ldi	r23, 0x27	; 39
    6b08:	80 e0       	ldi	r24, 0x00	; 0
    6b0a:	90 e0       	ldi	r25, 0x00	; 0
    6b0c:	0e 94 b6 36 	call	0x6d6c	; 0x6d6c <delay>
//------------------------------------------------------------------------------
void setup() {
  Wire.begin();     
  oled.begin(&Adafruit128x64, I2C_ADDRESS);
  oled.set400kHz();  
  for (uint8_t i = 0; i < nFont; i++) {
    6b10:	1f 5f       	subi	r17, 0xFF	; 255
    6b12:	c1 cf       	rjmp	.-126    	; 0x6a96 <setup+0x38>
    oled.println("*+,-./0123456789:");
    oled.println("abcdefghijklmno");
    oled.println("ABCDEFGHIJKLMNO");
    delay(10000);    
  }
  oled.clear();
    6b14:	80 e0       	ldi	r24, 0x00	; 0
    6b16:	93 e0       	ldi	r25, 0x03	; 3
    6b18:	0e 94 c8 37 	call	0x6f90	; 0x6f90 <_ZN12SSD1306Ascii5clearEv>
  oled.print("Done!");
    6b1c:	63 e9       	ldi	r22, 0x93	; 147
    6b1e:	71 e0       	ldi	r23, 0x01	; 1
    6b20:	80 e0       	ldi	r24, 0x00	; 0
    6b22:	93 e0       	ldi	r25, 0x03	; 3
}
    6b24:	df 91       	pop	r29
    6b26:	cf 91       	pop	r28
    6b28:	1f 91       	pop	r17
    6b2a:	ff 90       	pop	r15
    6b2c:	ef 90       	pop	r14
    oled.println("abcdefghijklmno");
    oled.println("ABCDEFGHIJKLMNO");
    delay(10000);    
  }
  oled.clear();
  oled.print("Done!");
    6b2e:	0c 94 2f 36 	jmp	0x6c5e	; 0x6c5e <_ZN5Print5printEPKc>

00006b32 <loop>:
}
    6b32:	08 95       	ret

00006b34 <_GLOBAL__sub_I_fontName>:
    size_t printNumber(unsigned long, uint8_t);
    size_t printFloat(double, uint8_t);
  protected:
    void setWriteError(int err = 1) { write_error = err; }
  public:
    Print() : write_error(0) {}
    6b34:	e0 e0       	ldi	r30, 0x00	; 0
    6b36:	f3 e0       	ldi	r31, 0x03	; 3
    6b38:	13 82       	std	Z+3, r1	; 0x03
    6b3a:	12 82       	std	Z+2, r1	; 0x02
 * @class SSD1306Ascii
 * @brief SSD1306 base class
 */
class SSD1306Ascii : public Print {
 public:
  SSD1306Ascii() : m_magFactor(1), m_font(0) {}
    6b3c:	81 e0       	ldi	r24, 0x01	; 1
    6b3e:	81 87       	std	Z+9, r24	; 0x09
    6b40:	14 86       	std	Z+12, r1	; 0x0c
    6b42:	13 86       	std	Z+11, r1	; 0x0b
#include "SSD1306Ascii.h"
/**
 * @class SSD1306AsciiWire
 * @brief Class for I2C displays using Wire.
 */
class SSD1306AsciiWire : public SSD1306Ascii {
    6b44:	84 ed       	ldi	r24, 0xD4	; 212
    6b46:	92 e0       	ldi	r25, 0x02	; 2
    6b48:	91 83       	std	Z+1, r25	; 0x01
    6b4a:	80 83       	st	Z, r24
    6b4c:	08 95       	ret

00006b4e <_ZN16SSD1306AsciiWire12writeDisplayEhh>:
#warning set400kHz() disabled for this CPU.
#endif  // __AVR_    
  }

 protected:
  void writeDisplay(uint8_t b, uint8_t mode) {
    6b4e:	0f 93       	push	r16
    6b50:	1f 93       	push	r17
    6b52:	cf 93       	push	r28
    6b54:	df 93       	push	r29
    6b56:	ec 01       	movw	r28, r24
    6b58:	06 2f       	mov	r16, r22
    6b5a:	14 2f       	mov	r17, r20
#if OPTIMIZE_I2C
    if (m_nData > 16 || (m_nData && mode == SSD1306_MODE_CMD)) {
    6b5c:	8e 85       	ldd	r24, Y+14	; 0x0e
    6b5e:	81 31       	cpi	r24, 0x11	; 17
    6b60:	20 f4       	brcc	.+8      	; 0x6b6a <_ZN16SSD1306AsciiWire12writeDisplayEhh+0x1c>
    6b62:	88 23       	and	r24, r24
    6b64:	39 f0       	breq	.+14     	; 0x6b74 <_ZN16SSD1306AsciiWire12writeDisplayEhh+0x26>
    6b66:	41 11       	cpse	r20, r1
    6b68:	05 c0       	rjmp	.+10     	; 0x6b74 <_ZN16SSD1306AsciiWire12writeDisplayEhh+0x26>
      Wire.endTransmission();
    6b6a:	88 e1       	ldi	r24, 0x18	; 24
    6b6c:	93 e0       	ldi	r25, 0x03	; 3
    6b6e:	0e 94 54 3a 	call	0x74a8	; 0x74a8 <_ZN7TwoWire15endTransmissionEv>
      m_nData = 0;
    6b72:	1e 86       	std	Y+14, r1	; 0x0e
    }
    if (m_nData == 0) {
    6b74:	8e 85       	ldd	r24, Y+14	; 0x0e
    6b76:	81 11       	cpse	r24, r1
    6b78:	0e c0       	rjmp	.+28     	; 0x6b96 <_ZN16SSD1306AsciiWire12writeDisplayEhh+0x48>
      Wire.beginTransmission(m_i2cAddr);
    6b7a:	6d 85       	ldd	r22, Y+13	; 0x0d
    6b7c:	88 e1       	ldi	r24, 0x18	; 24
    6b7e:	93 e0       	ldi	r25, 0x03	; 3
    6b80:	0e 94 37 3a 	call	0x746e	; 0x746e <_ZN7TwoWire17beginTransmissionEh>
      Wire.write(mode == SSD1306_MODE_CMD ? 0X00 : 0X40);
    6b84:	11 23       	and	r17, r17
    6b86:	11 f0       	breq	.+4      	; 0x6b8c <_ZN16SSD1306AsciiWire12writeDisplayEhh+0x3e>
    6b88:	60 e4       	ldi	r22, 0x40	; 64
    6b8a:	01 c0       	rjmp	.+2      	; 0x6b8e <_ZN16SSD1306AsciiWire12writeDisplayEhh+0x40>
    6b8c:	60 e0       	ldi	r22, 0x00	; 0
    void onRequest( void (*)(void) );

    inline size_t write(unsigned long n) { return write((uint8_t)n); }
    inline size_t write(long n) { return write((uint8_t)n); }
    inline size_t write(unsigned int n) { return write((uint8_t)n); }
    inline size_t write(int n) { return write((uint8_t)n); }
    6b8e:	88 e1       	ldi	r24, 0x18	; 24
    6b90:	93 e0       	ldi	r25, 0x03	; 3
    6b92:	0e 94 ee 39 	call	0x73dc	; 0x73dc <_ZN7TwoWire5writeEh>
    }
    Wire.write(b);
    6b96:	60 2f       	mov	r22, r16
    6b98:	88 e1       	ldi	r24, 0x18	; 24
    6b9a:	93 e0       	ldi	r25, 0x03	; 3
    6b9c:	0e 94 ee 39 	call	0x73dc	; 0x73dc <_ZN7TwoWire5writeEh>
    if (mode == SSD1306_MODE_RAM_BUF) {
    6ba0:	12 30       	cpi	r17, 0x02	; 2
    6ba2:	21 f4       	brne	.+8      	; 0x6bac <_ZN16SSD1306AsciiWire12writeDisplayEhh+0x5e>
      m_nData++; 
    6ba4:	8e 85       	ldd	r24, Y+14	; 0x0e
    6ba6:	8f 5f       	subi	r24, 0xFF	; 255
    6ba8:	8e 87       	std	Y+14, r24	; 0x0e
    6baa:	05 c0       	rjmp	.+10     	; 0x6bb6 <_ZN16SSD1306AsciiWire12writeDisplayEhh+0x68>
    }else {      
      Wire.endTransmission();
    6bac:	88 e1       	ldi	r24, 0x18	; 24
    6bae:	93 e0       	ldi	r25, 0x03	; 3
    6bb0:	0e 94 54 3a 	call	0x74a8	; 0x74a8 <_ZN7TwoWire15endTransmissionEv>
      m_nData = 0;
    6bb4:	1e 86       	std	Y+14, r1	; 0x0e
    Wire.beginTransmission(m_i2cAddr);
    Wire.write(mode == SSD1306_MODE_CMD ? 0X00: 0X40);
    Wire.write(b);
    Wire.endTransmission();
#endif    // OPTIMIZE_I2C
  }
    6bb6:	df 91       	pop	r29
    6bb8:	cf 91       	pop	r28
    6bba:	1f 91       	pop	r17
    6bbc:	0f 91       	pop	r16
    6bbe:	08 95       	ret

00006bc0 <initVariant>:
    6bc0:	08 95       	ret

00006bc2 <main>:
void setupUSB() __attribute__((weak));
void setupUSB() { }

int main(void)
{
	init();
    6bc2:	0e 94 f2 36 	call	0x6de4	; 0x6de4 <init>

	initVariant();
    6bc6:	0e 94 e0 35 	call	0x6bc0	; 0x6bc0 <initVariant>

#if defined(USBCON)
	USBDevice.attach();
#endif
	
	setup();
    6bca:	0e 94 2f 35 	call	0x6a5e	; 0x6a5e <setup>
    
	for (;;) {
		loop();
		if (serialEventRun) serialEventRun();
    6bce:	c0 e0       	ldi	r28, 0x00	; 0
    6bd0:	d0 e0       	ldi	r29, 0x00	; 0
#endif
	
	setup();
    
	for (;;) {
		loop();
    6bd2:	0e 94 99 35 	call	0x6b32	; 0x6b32 <loop>
		if (serialEventRun) serialEventRun();
    6bd6:	20 97       	sbiw	r28, 0x00	; 0
    6bd8:	e1 f3       	breq	.-8      	; 0x6bd2 <main+0x10>
    6bda:	0e 94 00 00 	call	0	; 0x0 <__vectors>
    6bde:	f9 cf       	rjmp	.-14     	; 0x6bd2 <main+0x10>

00006be0 <_ZN5Print5writeEPKhj>:
size_t Print::println(const String &s)
{
  size_t n = print(s);
  n += println();
  return n;
}
    6be0:	cf 92       	push	r12
    6be2:	df 92       	push	r13
    6be4:	ef 92       	push	r14
    6be6:	ff 92       	push	r15
    6be8:	0f 93       	push	r16
    6bea:	1f 93       	push	r17
    6bec:	cf 93       	push	r28
    6bee:	df 93       	push	r29
    6bf0:	6c 01       	movw	r12, r24
    6bf2:	7a 01       	movw	r14, r20
    6bf4:	8b 01       	movw	r16, r22
    6bf6:	c0 e0       	ldi	r28, 0x00	; 0
    6bf8:	d0 e0       	ldi	r29, 0x00	; 0
    6bfa:	ce 15       	cp	r28, r14
    6bfc:	df 05       	cpc	r29, r15
    6bfe:	81 f0       	breq	.+32     	; 0x6c20 <_ZN5Print5writeEPKhj+0x40>
    6c00:	d8 01       	movw	r26, r16
    6c02:	6d 91       	ld	r22, X+
    6c04:	8d 01       	movw	r16, r26
    6c06:	d6 01       	movw	r26, r12
    6c08:	ed 91       	ld	r30, X+
    6c0a:	fc 91       	ld	r31, X
    6c0c:	01 90       	ld	r0, Z+
    6c0e:	f0 81       	ld	r31, Z
    6c10:	e0 2d       	mov	r30, r0
    6c12:	c6 01       	movw	r24, r12
    6c14:	09 95       	icall
    6c16:	89 2b       	or	r24, r25
    6c18:	11 f0       	breq	.+4      	; 0x6c1e <_ZN5Print5writeEPKhj+0x3e>
    6c1a:	21 96       	adiw	r28, 0x01	; 1
    6c1c:	ee cf       	rjmp	.-36     	; 0x6bfa <_ZN5Print5writeEPKhj+0x1a>
    6c1e:	7e 01       	movw	r14, r28
    6c20:	c7 01       	movw	r24, r14
    6c22:	df 91       	pop	r29
    6c24:	cf 91       	pop	r28
    6c26:	1f 91       	pop	r17
    6c28:	0f 91       	pop	r16
    6c2a:	ff 90       	pop	r15
    6c2c:	ef 90       	pop	r14
    6c2e:	df 90       	pop	r13
    6c30:	cf 90       	pop	r12
    6c32:	08 95       	ret

00006c34 <_ZN5Print5writeEPKc>:
    6c34:	61 15       	cp	r22, r1
    6c36:	71 05       	cpc	r23, r1
    6c38:	79 f0       	breq	.+30     	; 0x6c58 <_ZN5Print5writeEPKc+0x24>
    6c3a:	fb 01       	movw	r30, r22
    6c3c:	01 90       	ld	r0, Z+
    6c3e:	00 20       	and	r0, r0
    6c40:	e9 f7       	brne	.-6      	; 0x6c3c <_ZN5Print5writeEPKc+0x8>
    6c42:	31 97       	sbiw	r30, 0x01	; 1
    6c44:	af 01       	movw	r20, r30
    6c46:	46 1b       	sub	r20, r22
    6c48:	57 0b       	sbc	r21, r23
    6c4a:	dc 01       	movw	r26, r24
    6c4c:	ed 91       	ld	r30, X+
    6c4e:	fc 91       	ld	r31, X
    6c50:	02 80       	ldd	r0, Z+2	; 0x02
    6c52:	f3 81       	ldd	r31, Z+3	; 0x03
    6c54:	e0 2d       	mov	r30, r0
    6c56:	09 94       	ijmp
    6c58:	80 e0       	ldi	r24, 0x00	; 0
    6c5a:	90 e0       	ldi	r25, 0x00	; 0
    6c5c:	08 95       	ret

00006c5e <_ZN5Print5printEPKc>:
    6c5e:	0c 94 1a 36 	jmp	0x6c34	; 0x6c34 <_ZN5Print5writeEPKc>

00006c62 <_ZN5Print7printlnEv>:
    6c62:	6e ed       	ldi	r22, 0xDE	; 222
    6c64:	72 e0       	ldi	r23, 0x02	; 2
    6c66:	0c 94 1a 36 	jmp	0x6c34	; 0x6c34 <_ZN5Print5writeEPKc>

00006c6a <_ZN5Print7printlnEPKc>:

size_t Print::println(const char c[])
{
    6c6a:	0f 93       	push	r16
    6c6c:	1f 93       	push	r17
    6c6e:	cf 93       	push	r28
    6c70:	df 93       	push	r29
    6c72:	ec 01       	movw	r28, r24
  return write(s.c_str(), s.length());
}

size_t Print::print(const char str[])
{
  return write(str);
    6c74:	0e 94 1a 36 	call	0x6c34	; 0x6c34 <_ZN5Print5writeEPKc>
    6c78:	8c 01       	movw	r16, r24
}

size_t Print::println(const char c[])
{
  size_t n = print(c);
  n += println();
    6c7a:	ce 01       	movw	r24, r28
    6c7c:	0e 94 31 36 	call	0x6c62	; 0x6c62 <_ZN5Print7printlnEv>
  return n;
}
    6c80:	80 0f       	add	r24, r16
    6c82:	91 1f       	adc	r25, r17
    6c84:	df 91       	pop	r29
    6c86:	cf 91       	pop	r28
    6c88:	1f 91       	pop	r17
    6c8a:	0f 91       	pop	r16
    6c8c:	08 95       	ret

00006c8e <__vector_16>:
	

#endif

	// busy wait
	__asm__ __volatile__ (
    6c8e:	1f 92       	push	r1
    6c90:	0f 92       	push	r0
    6c92:	0f b6       	in	r0, 0x3f	; 63
    6c94:	0f 92       	push	r0
    6c96:	11 24       	eor	r1, r1
    6c98:	2f 93       	push	r18
    6c9a:	3f 93       	push	r19
    6c9c:	8f 93       	push	r24
    6c9e:	9f 93       	push	r25
    6ca0:	af 93       	push	r26
    6ca2:	bf 93       	push	r27
    6ca4:	80 91 10 03 	lds	r24, 0x0310	; 0x800310 <timer0_millis>
    6ca8:	90 91 11 03 	lds	r25, 0x0311	; 0x800311 <timer0_millis+0x1>
    6cac:	a0 91 12 03 	lds	r26, 0x0312	; 0x800312 <timer0_millis+0x2>
    6cb0:	b0 91 13 03 	lds	r27, 0x0313	; 0x800313 <timer0_millis+0x3>
    6cb4:	30 91 0f 03 	lds	r19, 0x030F	; 0x80030f <timer0_fract>
    6cb8:	23 e0       	ldi	r18, 0x03	; 3
    6cba:	23 0f       	add	r18, r19
    6cbc:	2d 37       	cpi	r18, 0x7D	; 125
    6cbe:	20 f4       	brcc	.+8      	; 0x6cc8 <__vector_16+0x3a>
    6cc0:	01 96       	adiw	r24, 0x01	; 1
    6cc2:	a1 1d       	adc	r26, r1
    6cc4:	b1 1d       	adc	r27, r1
    6cc6:	05 c0       	rjmp	.+10     	; 0x6cd2 <__vector_16+0x44>
    6cc8:	26 e8       	ldi	r18, 0x86	; 134
    6cca:	23 0f       	add	r18, r19
    6ccc:	02 96       	adiw	r24, 0x02	; 2
    6cce:	a1 1d       	adc	r26, r1
    6cd0:	b1 1d       	adc	r27, r1
    6cd2:	20 93 0f 03 	sts	0x030F, r18	; 0x80030f <timer0_fract>
    6cd6:	80 93 10 03 	sts	0x0310, r24	; 0x800310 <timer0_millis>
    6cda:	90 93 11 03 	sts	0x0311, r25	; 0x800311 <timer0_millis+0x1>
    6cde:	a0 93 12 03 	sts	0x0312, r26	; 0x800312 <timer0_millis+0x2>
    6ce2:	b0 93 13 03 	sts	0x0313, r27	; 0x800313 <timer0_millis+0x3>
    6ce6:	80 91 14 03 	lds	r24, 0x0314	; 0x800314 <timer0_overflow_count>
    6cea:	90 91 15 03 	lds	r25, 0x0315	; 0x800315 <timer0_overflow_count+0x1>
    6cee:	a0 91 16 03 	lds	r26, 0x0316	; 0x800316 <timer0_overflow_count+0x2>
    6cf2:	b0 91 17 03 	lds	r27, 0x0317	; 0x800317 <timer0_overflow_count+0x3>
    6cf6:	01 96       	adiw	r24, 0x01	; 1
    6cf8:	a1 1d       	adc	r26, r1
    6cfa:	b1 1d       	adc	r27, r1
    6cfc:	80 93 14 03 	sts	0x0314, r24	; 0x800314 <timer0_overflow_count>
    6d00:	90 93 15 03 	sts	0x0315, r25	; 0x800315 <timer0_overflow_count+0x1>
    6d04:	a0 93 16 03 	sts	0x0316, r26	; 0x800316 <timer0_overflow_count+0x2>
    6d08:	b0 93 17 03 	sts	0x0317, r27	; 0x800317 <timer0_overflow_count+0x3>
    6d0c:	bf 91       	pop	r27
    6d0e:	af 91       	pop	r26
    6d10:	9f 91       	pop	r25
    6d12:	8f 91       	pop	r24
    6d14:	3f 91       	pop	r19
    6d16:	2f 91       	pop	r18
    6d18:	0f 90       	pop	r0
    6d1a:	0f be       	out	0x3f, r0	; 63
    6d1c:	0f 90       	pop	r0
    6d1e:	1f 90       	pop	r1
    6d20:	18 95       	reti

00006d22 <micros>:
    6d22:	3f b7       	in	r19, 0x3f	; 63
    6d24:	f8 94       	cli
    6d26:	80 91 14 03 	lds	r24, 0x0314	; 0x800314 <timer0_overflow_count>
    6d2a:	90 91 15 03 	lds	r25, 0x0315	; 0x800315 <timer0_overflow_count+0x1>
    6d2e:	a0 91 16 03 	lds	r26, 0x0316	; 0x800316 <timer0_overflow_count+0x2>
    6d32:	b0 91 17 03 	lds	r27, 0x0317	; 0x800317 <timer0_overflow_count+0x3>
    6d36:	26 b5       	in	r18, 0x26	; 38
    6d38:	a8 9b       	sbis	0x15, 0	; 21
    6d3a:	05 c0       	rjmp	.+10     	; 0x6d46 <micros+0x24>
    6d3c:	2f 3f       	cpi	r18, 0xFF	; 255
    6d3e:	19 f0       	breq	.+6      	; 0x6d46 <micros+0x24>
    6d40:	01 96       	adiw	r24, 0x01	; 1
    6d42:	a1 1d       	adc	r26, r1
    6d44:	b1 1d       	adc	r27, r1
    6d46:	3f bf       	out	0x3f, r19	; 63
    6d48:	ba 2f       	mov	r27, r26
    6d4a:	a9 2f       	mov	r26, r25
    6d4c:	98 2f       	mov	r25, r24
    6d4e:	88 27       	eor	r24, r24
    6d50:	82 0f       	add	r24, r18
    6d52:	91 1d       	adc	r25, r1
    6d54:	a1 1d       	adc	r26, r1
    6d56:	b1 1d       	adc	r27, r1
    6d58:	bc 01       	movw	r22, r24
    6d5a:	cd 01       	movw	r24, r26
    6d5c:	42 e0       	ldi	r20, 0x02	; 2
    6d5e:	66 0f       	add	r22, r22
    6d60:	77 1f       	adc	r23, r23
    6d62:	88 1f       	adc	r24, r24
    6d64:	99 1f       	adc	r25, r25
    6d66:	4a 95       	dec	r20
    6d68:	d1 f7       	brne	.-12     	; 0x6d5e <micros+0x3c>
    6d6a:	08 95       	ret

00006d6c <delay>:
    6d6c:	8f 92       	push	r8
    6d6e:	9f 92       	push	r9
    6d70:	af 92       	push	r10
    6d72:	bf 92       	push	r11
    6d74:	cf 92       	push	r12
    6d76:	df 92       	push	r13
    6d78:	ef 92       	push	r14
    6d7a:	ff 92       	push	r15
    6d7c:	6b 01       	movw	r12, r22
    6d7e:	7c 01       	movw	r14, r24
    6d80:	0e 94 91 36 	call	0x6d22	; 0x6d22 <micros>
    6d84:	4b 01       	movw	r8, r22
    6d86:	5c 01       	movw	r10, r24
    6d88:	c1 14       	cp	r12, r1
    6d8a:	d1 04       	cpc	r13, r1
    6d8c:	e1 04       	cpc	r14, r1
    6d8e:	f1 04       	cpc	r15, r1
    6d90:	01 f1       	breq	.+64     	; 0x6dd2 <delay+0x66>
    6d92:	0e 94 5b 3a 	call	0x74b6	; 0x74b6 <yield>
    6d96:	0e 94 91 36 	call	0x6d22	; 0x6d22 <micros>
    6d9a:	dc 01       	movw	r26, r24
    6d9c:	cb 01       	movw	r24, r22
    6d9e:	88 19       	sub	r24, r8
    6da0:	99 09       	sbc	r25, r9
    6da2:	aa 09       	sbc	r26, r10
    6da4:	bb 09       	sbc	r27, r11
    6da6:	88 3e       	cpi	r24, 0xE8	; 232
    6da8:	93 40       	sbci	r25, 0x03	; 3
    6daa:	a1 05       	cpc	r26, r1
    6dac:	b1 05       	cpc	r27, r1
    6dae:	60 f3       	brcs	.-40     	; 0x6d88 <delay+0x1c>
    6db0:	21 e0       	ldi	r18, 0x01	; 1
    6db2:	c2 1a       	sub	r12, r18
    6db4:	d1 08       	sbc	r13, r1
    6db6:	e1 08       	sbc	r14, r1
    6db8:	f1 08       	sbc	r15, r1
    6dba:	88 ee       	ldi	r24, 0xE8	; 232
    6dbc:	88 0e       	add	r8, r24
    6dbe:	83 e0       	ldi	r24, 0x03	; 3
    6dc0:	98 1e       	adc	r9, r24
    6dc2:	a1 1c       	adc	r10, r1
    6dc4:	b1 1c       	adc	r11, r1
    6dc6:	c1 14       	cp	r12, r1
    6dc8:	d1 04       	cpc	r13, r1
    6dca:	e1 04       	cpc	r14, r1
    6dcc:	f1 04       	cpc	r15, r1
    6dce:	19 f7       	brne	.-58     	; 0x6d96 <delay+0x2a>
    6dd0:	db cf       	rjmp	.-74     	; 0x6d88 <delay+0x1c>
    6dd2:	ff 90       	pop	r15
    6dd4:	ef 90       	pop	r14
    6dd6:	df 90       	pop	r13
    6dd8:	cf 90       	pop	r12
    6dda:	bf 90       	pop	r11
    6ddc:	af 90       	pop	r10
    6dde:	9f 90       	pop	r9
    6de0:	8f 90       	pop	r8
    6de2:	08 95       	ret

00006de4 <init>:

void init()
{
	// this needs to be called before setup() or some functions won't
	// work there
	sei();
    6de4:	78 94       	sei
	
	// on the ATmega168, timer 0 is also used for fast hardware pwm
	// (using phase-correct PWM would mean that timer 0 overflowed half as often
	// resulting in different millis() behavior on the ATmega8 and ATmega168)
#if defined(TCCR0A) && defined(WGM01)
	sbi(TCCR0A, WGM01);
    6de6:	84 b5       	in	r24, 0x24	; 36
    6de8:	82 60       	ori	r24, 0x02	; 2
    6dea:	84 bd       	out	0x24, r24	; 36
	sbi(TCCR0A, WGM00);
    6dec:	84 b5       	in	r24, 0x24	; 36
    6dee:	81 60       	ori	r24, 0x01	; 1
    6df0:	84 bd       	out	0x24, r24	; 36
	// this combination is for the standard atmega8
	sbi(TCCR0, CS01);
	sbi(TCCR0, CS00);
#elif defined(TCCR0B) && defined(CS01) && defined(CS00)
	// this combination is for the standard 168/328/1280/2560
	sbi(TCCR0B, CS01);
    6df2:	85 b5       	in	r24, 0x25	; 37
    6df4:	82 60       	ori	r24, 0x02	; 2
    6df6:	85 bd       	out	0x25, r24	; 37
	sbi(TCCR0B, CS00);
    6df8:	85 b5       	in	r24, 0x25	; 37
    6dfa:	81 60       	ori	r24, 0x01	; 1
    6dfc:	85 bd       	out	0x25, r24	; 37

	// enable timer 0 overflow interrupt
#if defined(TIMSK) && defined(TOIE0)
	sbi(TIMSK, TOIE0);
#elif defined(TIMSK0) && defined(TOIE0)
	sbi(TIMSK0, TOIE0);
    6dfe:	ee e6       	ldi	r30, 0x6E	; 110
    6e00:	f0 e0       	ldi	r31, 0x00	; 0
    6e02:	80 81       	ld	r24, Z
    6e04:	81 60       	ori	r24, 0x01	; 1
    6e06:	80 83       	st	Z, r24
	// this is better for motors as it ensures an even waveform
	// note, however, that fast pwm mode can achieve a frequency of up
	// 8 MHz (with a 16 MHz clock) at 50% duty cycle

#if defined(TCCR1B) && defined(CS11) && defined(CS10)
	TCCR1B = 0;
    6e08:	e1 e8       	ldi	r30, 0x81	; 129
    6e0a:	f0 e0       	ldi	r31, 0x00	; 0
    6e0c:	10 82       	st	Z, r1

	// set timer 1 prescale factor to 64
	sbi(TCCR1B, CS11);
    6e0e:	80 81       	ld	r24, Z
    6e10:	82 60       	ori	r24, 0x02	; 2
    6e12:	80 83       	st	Z, r24
#if F_CPU >= 8000000L
	sbi(TCCR1B, CS10);
    6e14:	80 81       	ld	r24, Z
    6e16:	81 60       	ori	r24, 0x01	; 1
    6e18:	80 83       	st	Z, r24
	sbi(TCCR1, CS10);
#endif
#endif
	// put timer 1 in 8-bit phase correct pwm mode
#if defined(TCCR1A) && defined(WGM10)
	sbi(TCCR1A, WGM10);
    6e1a:	e0 e8       	ldi	r30, 0x80	; 128
    6e1c:	f0 e0       	ldi	r31, 0x00	; 0
    6e1e:	80 81       	ld	r24, Z
    6e20:	81 60       	ori	r24, 0x01	; 1
    6e22:	80 83       	st	Z, r24

	// set timer 2 prescale factor to 64
#if defined(TCCR2) && defined(CS22)
	sbi(TCCR2, CS22);
#elif defined(TCCR2B) && defined(CS22)
	sbi(TCCR2B, CS22);
    6e24:	e1 eb       	ldi	r30, 0xB1	; 177
    6e26:	f0 e0       	ldi	r31, 0x00	; 0
    6e28:	80 81       	ld	r24, Z
    6e2a:	84 60       	ori	r24, 0x04	; 4
    6e2c:	80 83       	st	Z, r24

	// configure timer 2 for phase correct pwm (8-bit)
#if defined(TCCR2) && defined(WGM20)
	sbi(TCCR2, WGM20);
#elif defined(TCCR2A) && defined(WGM20)
	sbi(TCCR2A, WGM20);
    6e2e:	e0 eb       	ldi	r30, 0xB0	; 176
    6e30:	f0 e0       	ldi	r31, 0x00	; 0
    6e32:	80 81       	ld	r24, Z
    6e34:	81 60       	ori	r24, 0x01	; 1
    6e36:	80 83       	st	Z, r24
#endif

#if defined(ADCSRA)
	// set a2d prescaler so we are inside the desired 50-200 KHz range.
	#if F_CPU >= 16000000 // 16 MHz / 128 = 125 KHz
		sbi(ADCSRA, ADPS2);
    6e38:	ea e7       	ldi	r30, 0x7A	; 122
    6e3a:	f0 e0       	ldi	r31, 0x00	; 0
    6e3c:	80 81       	ld	r24, Z
    6e3e:	84 60       	ori	r24, 0x04	; 4
    6e40:	80 83       	st	Z, r24
		sbi(ADCSRA, ADPS1);
    6e42:	80 81       	ld	r24, Z
    6e44:	82 60       	ori	r24, 0x02	; 2
    6e46:	80 83       	st	Z, r24
		sbi(ADCSRA, ADPS0);
    6e48:	80 81       	ld	r24, Z
    6e4a:	81 60       	ori	r24, 0x01	; 1
    6e4c:	80 83       	st	Z, r24
		cbi(ADCSRA, ADPS2);
		cbi(ADCSRA, ADPS1);
		sbi(ADCSRA, ADPS0);
	#endif
	// enable a2d conversions
	sbi(ADCSRA, ADEN);
    6e4e:	80 81       	ld	r24, Z
    6e50:	80 68       	ori	r24, 0x80	; 128
    6e52:	80 83       	st	Z, r24
	// here so they can be used as normal digital i/o; they will be
	// reconnected in Serial.begin()
#if defined(UCSRB)
	UCSRB = 0;
#elif defined(UCSR0B)
	UCSR0B = 0;
    6e54:	10 92 c1 00 	sts	0x00C1, r1	; 0x8000c1 <__TEXT_REGION_LENGTH__+0x7e00c1>
    6e58:	08 95       	ret

00006e5a <_ZN12SSD1306Ascii15ssd1306WriteCmdEh>:
#if INCLUDE_SCROLLING 
void SSD1306Ascii::setScroll(bool enable) {
  if (m_displayHeight != 64) return;
  clear();
  m_scroll = enable ? 1 : 0;
}
    6e5a:	dc 01       	movw	r26, r24
    6e5c:	ed 91       	ld	r30, X+
    6e5e:	fc 91       	ld	r31, X
    6e60:	00 84       	ldd	r0, Z+8	; 0x08
    6e62:	f1 85       	ldd	r31, Z+9	; 0x09
    6e64:	e0 2d       	mov	r30, r0
    6e66:	40 e0       	ldi	r20, 0x00	; 0
    6e68:	09 94       	ijmp

00006e6a <_ZN12SSD1306Ascii10fontHeightEv>:
    6e6a:	dc 01       	movw	r26, r24
    6e6c:	1b 96       	adiw	r26, 0x0b	; 11
    6e6e:	ed 91       	ld	r30, X+
    6e70:	fc 91       	ld	r31, X
    6e72:	1c 97       	sbiw	r26, 0x0c	; 12
    6e74:	30 97       	sbiw	r30, 0x00	; 0
    6e76:	41 f0       	breq	.+16     	; 0x6e88 <_ZN12SSD1306Ascii10fontHeightEv+0x1e>
    6e78:	33 96       	adiw	r30, 0x03	; 3
    6e7a:	e4 91       	lpm	r30, Z
    6e7c:	19 96       	adiw	r26, 0x09	; 9
    6e7e:	8c 91       	ld	r24, X
    6e80:	e8 9f       	mul	r30, r24
    6e82:	80 2d       	mov	r24, r0
    6e84:	11 24       	eor	r1, r1
    6e86:	08 95       	ret
    6e88:	80 e0       	ldi	r24, 0x00	; 0
    6e8a:	08 95       	ret

00006e8c <_ZN12SSD1306Ascii6setColEh>:
    6e8c:	0f 93       	push	r16
    6e8e:	1f 93       	push	r17
    6e90:	cf 93       	push	r28
    6e92:	fc 01       	movw	r30, r24
    6e94:	26 81       	ldd	r18, Z+6	; 0x06
    6e96:	62 17       	cp	r22, r18
    6e98:	a0 f4       	brcc	.+40     	; 0x6ec2 <_ZN12SSD1306Ascii6setColEh+0x36>
    6e9a:	c6 2f       	mov	r28, r22
    6e9c:	8c 01       	movw	r16, r24
    6e9e:	64 83       	std	Z+4, r22	; 0x04
    6ea0:	90 85       	ldd	r25, Z+8	; 0x08
    6ea2:	c9 0f       	add	r28, r25
    6ea4:	6c 2f       	mov	r22, r28
    6ea6:	6f 70       	andi	r22, 0x0F	; 15
    6ea8:	cf 01       	movw	r24, r30
    6eaa:	0e 94 2d 37 	call	0x6e5a	; 0x6e5a <_ZN12SSD1306Ascii15ssd1306WriteCmdEh>
    6eae:	6c 2f       	mov	r22, r28
    6eb0:	62 95       	swap	r22
    6eb2:	6f 70       	andi	r22, 0x0F	; 15
    6eb4:	60 61       	ori	r22, 0x10	; 16
    6eb6:	c8 01       	movw	r24, r16
    6eb8:	cf 91       	pop	r28
    6eba:	1f 91       	pop	r17
    6ebc:	0f 91       	pop	r16
    6ebe:	0c 94 2d 37 	jmp	0x6e5a	; 0x6e5a <_ZN12SSD1306Ascii15ssd1306WriteCmdEh>
    6ec2:	cf 91       	pop	r28
    6ec4:	1f 91       	pop	r17
    6ec6:	0f 91       	pop	r16
    6ec8:	08 95       	ret

00006eca <_ZN12SSD1306Ascii6setRowEh>:
    6eca:	fc 01       	movw	r30, r24
    6ecc:	27 81       	ldd	r18, Z+7	; 0x07
    6ece:	26 95       	lsr	r18
    6ed0:	26 95       	lsr	r18
    6ed2:	26 95       	lsr	r18
    6ed4:	62 17       	cp	r22, r18
    6ed6:	20 f4       	brcc	.+8      	; 0x6ee0 <_ZN12SSD1306Ascii6setRowEh+0x16>
    6ed8:	65 83       	std	Z+5, r22	; 0x05
    6eda:	60 6b       	ori	r22, 0xB0	; 176
    6edc:	0c 94 2d 37 	jmp	0x6e5a	; 0x6e5a <_ZN12SSD1306Ascii15ssd1306WriteCmdEh>
    6ee0:	08 95       	ret

00006ee2 <_ZN12SSD1306Ascii9setCursorEhh>:
    6ee2:	1f 93       	push	r17
    6ee4:	cf 93       	push	r28
    6ee6:	df 93       	push	r29
    6ee8:	ec 01       	movw	r28, r24
    6eea:	14 2f       	mov	r17, r20
    6eec:	0e 94 46 37 	call	0x6e8c	; 0x6e8c <_ZN12SSD1306Ascii6setColEh>
    6ef0:	61 2f       	mov	r22, r17
    6ef2:	ce 01       	movw	r24, r28
    6ef4:	df 91       	pop	r29
    6ef6:	cf 91       	pop	r28
    6ef8:	1f 91       	pop	r17
    6efa:	0c 94 65 37 	jmp	0x6eca	; 0x6eca <_ZN12SSD1306Ascii6setRowEh>

00006efe <_ZN12SSD1306Ascii18ssd1306WriteRamBufEh>:
    6efe:	cf 93       	push	r28
    6f00:	df 93       	push	r29
    6f02:	ec 01       	movw	r28, r24
    6f04:	9c 81       	ldd	r25, Y+4	; 0x04
    6f06:	8e 81       	ldd	r24, Y+6	; 0x06
    6f08:	98 17       	cp	r25, r24
    6f0a:	58 f4       	brcc	.+22     	; 0x6f22 <_ZN12SSD1306Ascii18ssd1306WriteRamBufEh+0x24>
    6f0c:	e8 81       	ld	r30, Y
    6f0e:	f9 81       	ldd	r31, Y+1	; 0x01
    6f10:	00 84       	ldd	r0, Z+8	; 0x08
    6f12:	f1 85       	ldd	r31, Z+9	; 0x09
    6f14:	e0 2d       	mov	r30, r0
    6f16:	42 e0       	ldi	r20, 0x02	; 2
    6f18:	ce 01       	movw	r24, r28
    6f1a:	09 95       	icall
    6f1c:	8c 81       	ldd	r24, Y+4	; 0x04
    6f1e:	8f 5f       	subi	r24, 0xFF	; 255
    6f20:	8c 83       	std	Y+4, r24	; 0x04
    6f22:	df 91       	pop	r29
    6f24:	cf 91       	pop	r28
    6f26:	08 95       	ret

00006f28 <_ZN12SSD1306Ascii5clearEhhhh>:
    6f28:	cf 92       	push	r12
    6f2a:	df 92       	push	r13
    6f2c:	ef 92       	push	r14
    6f2e:	ff 92       	push	r15
    6f30:	0f 93       	push	r16
    6f32:	1f 93       	push	r17
    6f34:	cf 93       	push	r28
    6f36:	df 93       	push	r29
    6f38:	ec 01       	movw	r28, r24
    6f3a:	f6 2e       	mov	r15, r22
    6f3c:	c4 2e       	mov	r12, r20
    6f3e:	d2 2e       	mov	r13, r18
    6f40:	8f 81       	ldd	r24, Y+7	; 0x07
    6f42:	86 95       	lsr	r24
    6f44:	86 95       	lsr	r24
    6f46:	86 95       	lsr	r24
    6f48:	08 17       	cp	r16, r24
    6f4a:	10 f0       	brcs	.+4      	; 0x6f50 <_ZN12SSD1306Ascii5clearEhhhh+0x28>
    6f4c:	0f ef       	ldi	r16, 0xFF	; 255
    6f4e:	08 0f       	add	r16, r24
    6f50:	1d 2d       	mov	r17, r13
    6f52:	01 17       	cp	r16, r17
    6f54:	80 f0       	brcs	.+32     	; 0x6f76 <_ZN12SSD1306Ascii5clearEhhhh+0x4e>
    6f56:	41 2f       	mov	r20, r17
    6f58:	6f 2d       	mov	r22, r15
    6f5a:	ce 01       	movw	r24, r28
    6f5c:	0e 94 71 37 	call	0x6ee2	; 0x6ee2 <_ZN12SSD1306Ascii9setCursorEhh>
    6f60:	ef 2c       	mov	r14, r15
    6f62:	ce 14       	cp	r12, r14
    6f64:	30 f0       	brcs	.+12     	; 0x6f72 <_ZN12SSD1306Ascii5clearEhhhh+0x4a>
    6f66:	60 e0       	ldi	r22, 0x00	; 0
    6f68:	ce 01       	movw	r24, r28
    6f6a:	0e 94 7f 37 	call	0x6efe	; 0x6efe <_ZN12SSD1306Ascii18ssd1306WriteRamBufEh>
    6f6e:	e3 94       	inc	r14
    6f70:	f8 cf       	rjmp	.-16     	; 0x6f62 <_ZN12SSD1306Ascii5clearEhhhh+0x3a>
    6f72:	1f 5f       	subi	r17, 0xFF	; 255
    6f74:	ee cf       	rjmp	.-36     	; 0x6f52 <_ZN12SSD1306Ascii5clearEhhhh+0x2a>
    6f76:	4d 2d       	mov	r20, r13
    6f78:	6f 2d       	mov	r22, r15
    6f7a:	ce 01       	movw	r24, r28
    6f7c:	df 91       	pop	r29
    6f7e:	cf 91       	pop	r28
    6f80:	1f 91       	pop	r17
    6f82:	0f 91       	pop	r16
    6f84:	ff 90       	pop	r15
    6f86:	ef 90       	pop	r14
    6f88:	df 90       	pop	r13
    6f8a:	cf 90       	pop	r12
    6f8c:	0c 94 71 37 	jmp	0x6ee2	; 0x6ee2 <_ZN12SSD1306Ascii9setCursorEhh>

00006f90 <_ZN12SSD1306Ascii5clearEv>:
    6f90:	0f 93       	push	r16
    6f92:	cf 93       	push	r28
    6f94:	df 93       	push	r29
    6f96:	ec 01       	movw	r28, r24
    6f98:	0f 81       	ldd	r16, Y+7	; 0x07
    6f9a:	06 95       	lsr	r16
    6f9c:	06 95       	lsr	r16
    6f9e:	06 95       	lsr	r16
    6fa0:	01 50       	subi	r16, 0x01	; 1
    6fa2:	4e 81       	ldd	r20, Y+6	; 0x06
    6fa4:	41 50       	subi	r20, 0x01	; 1
    6fa6:	20 e0       	ldi	r18, 0x00	; 0
    6fa8:	60 e0       	ldi	r22, 0x00	; 0
    6faa:	0e 94 94 37 	call	0x6f28	; 0x6f28 <_ZN12SSD1306Ascii5clearEhhhh>
    6fae:	81 e0       	ldi	r24, 0x01	; 1
    6fb0:	9a 85       	ldd	r25, Y+10	; 0x0a
    6fb2:	91 11       	cpse	r25, r1
    6fb4:	01 c0       	rjmp	.+2      	; 0x6fb8 <_ZN12SSD1306Ascii5clearEv+0x28>
    6fb6:	80 e0       	ldi	r24, 0x00	; 0
    6fb8:	8a 87       	std	Y+10, r24	; 0x0a
    6fba:	60 e4       	ldi	r22, 0x40	; 64
    6fbc:	ce 01       	movw	r24, r28
    6fbe:	df 91       	pop	r29
    6fc0:	cf 91       	pop	r28
    6fc2:	0f 91       	pop	r16
    6fc4:	0c 94 2d 37 	jmp	0x6e5a	; 0x6e5a <_ZN12SSD1306Ascii15ssd1306WriteCmdEh>

00006fc8 <_ZN12SSD1306Ascii4initEPK7DevType>:
    6fc8:	ef 92       	push	r14
    6fca:	ff 92       	push	r15
    6fcc:	0f 93       	push	r16
    6fce:	1f 93       	push	r17
    6fd0:	cf 93       	push	r28
    6fd2:	df 93       	push	r29
    6fd4:	ec 01       	movw	r28, r24
    6fd6:	1c 82       	std	Y+4, r1	; 0x04
    6fd8:	1d 82       	std	Y+5, r1	; 0x05
    6fda:	fb 01       	movw	r30, r22
    6fdc:	85 91       	lpm	r24, Z+
    6fde:	94 91       	lpm	r25, Z
    6fe0:	e8 2e       	mov	r14, r24
    6fe2:	fb 01       	movw	r30, r22
    6fe4:	32 96       	adiw	r30, 0x02	; 2
    6fe6:	f4 90       	lpm	r15, Z
    6fe8:	31 96       	adiw	r30, 0x01	; 1
    6fea:	e4 91       	lpm	r30, Z
    6fec:	ee 83       	std	Y+6, r30	; 0x06
    6fee:	fb 01       	movw	r30, r22
    6ff0:	34 96       	adiw	r30, 0x04	; 4
    6ff2:	e4 91       	lpm	r30, Z
    6ff4:	ef 83       	std	Y+7, r30	; 0x07
    6ff6:	fb 01       	movw	r30, r22
    6ff8:	35 96       	adiw	r30, 0x05	; 5
    6ffa:	64 91       	lpm	r22, Z
    6ffc:	68 87       	std	Y+8, r22	; 0x08
    6ffe:	8c 01       	movw	r16, r24
    7000:	80 2f       	mov	r24, r16
    7002:	8e 19       	sub	r24, r14
    7004:	8f 15       	cp	r24, r15
    7006:	40 f4       	brcc	.+16     	; 0x7018 <_ZN12SSD1306Ascii4initEPK7DevType+0x50>
    7008:	f8 01       	movw	r30, r16
    700a:	64 91       	lpm	r22, Z
    700c:	ce 01       	movw	r24, r28
    700e:	0e 94 2d 37 	call	0x6e5a	; 0x6e5a <_ZN12SSD1306Ascii15ssd1306WriteCmdEh>
    7012:	0f 5f       	subi	r16, 0xFF	; 255
    7014:	1f 4f       	sbci	r17, 0xFF	; 255
    7016:	f4 cf       	rjmp	.-24     	; 0x7000 <_ZN12SSD1306Ascii4initEPK7DevType+0x38>
    7018:	1a 86       	std	Y+10, r1	; 0x0a
    701a:	ce 01       	movw	r24, r28
    701c:	df 91       	pop	r29
    701e:	cf 91       	pop	r28
    7020:	1f 91       	pop	r17
    7022:	0f 91       	pop	r16
    7024:	ff 90       	pop	r15
    7026:	ef 90       	pop	r14
    7028:	0c 94 c8 37 	jmp	0x6f90	; 0x6f90 <_ZN12SSD1306Ascii5clearEv>

0000702c <_ZN12SSD1306Ascii10clearToEOLEv>:
    }
  }
  setCursor(c0, r0);
}
//------------------------------------------------------------------------------
void SSD1306Ascii::clearToEOL() {
    702c:	0f 93       	push	r16
    702e:	cf 93       	push	r28
    7030:	df 93       	push	r29
    7032:	ec 01       	movw	r28, r24
  clear (m_col, displayWidth() - 1, m_row, m_row + fontRows() - 1);
    7034:	0d 81       	ldd	r16, Y+5	; 0x05
  uint8_t fontHeight();
  /**
   * @return The number of eight pixel rows required to display a character
   *    in the current font.
   */
  uint8_t fontRows() {return (fontHeight() + 7)/8;}
    7036:	0e 94 35 37 	call	0x6e6a	; 0x6e6a <_ZN12SSD1306Ascii10fontHeightEv>
    703a:	90 e0       	ldi	r25, 0x00	; 0
    703c:	07 96       	adiw	r24, 0x07	; 7
    703e:	23 e0       	ldi	r18, 0x03	; 3
    7040:	95 95       	asr	r25
    7042:	87 95       	ror	r24
    7044:	2a 95       	dec	r18
    7046:	e1 f7       	brne	.-8      	; 0x7040 <_ZN12SSD1306Ascii10clearToEOLEv+0x14>
    7048:	01 50       	subi	r16, 0x01	; 1
    704a:	08 0f       	add	r16, r24
    704c:	4e 81       	ldd	r20, Y+6	; 0x06
    704e:	41 50       	subi	r20, 0x01	; 1
    7050:	2d 81       	ldd	r18, Y+5	; 0x05
    7052:	6c 81       	ldd	r22, Y+4	; 0x04
    7054:	ce 01       	movw	r24, r28
    7056:	0e 94 94 37 	call	0x6f28	; 0x6f28 <_ZN12SSD1306Ascii5clearEhhhh>
}
    705a:	df 91       	pop	r29
    705c:	cf 91       	pop	r28
    705e:	0f 91       	pop	r16
    7060:	08 95       	ret

00007062 <_ZN12SSD1306Ascii5writeEh>:
  0X30, 0X33, 0X3C, 0X3F,
  0XC0, 0XC3, 0XCC, 0XCF,
  0XF0, 0XF3, 0XFC, 0XFF
};
//------------------------------------------------------------------------------
size_t SSD1306Ascii::write(uint8_t ch) {
    7062:	2f 92       	push	r2
    7064:	3f 92       	push	r3
    7066:	4f 92       	push	r4
    7068:	5f 92       	push	r5
    706a:	6f 92       	push	r6
    706c:	7f 92       	push	r7
    706e:	8f 92       	push	r8
    7070:	9f 92       	push	r9
    7072:	af 92       	push	r10
    7074:	bf 92       	push	r11
    7076:	cf 92       	push	r12
    7078:	df 92       	push	r13
    707a:	ef 92       	push	r14
    707c:	ff 92       	push	r15
    707e:	0f 93       	push	r16
    7080:	1f 93       	push	r17
    7082:	cf 93       	push	r28
    7084:	df 93       	push	r29
    7086:	cd b7       	in	r28, 0x3d	; 61
    7088:	de b7       	in	r29, 0x3e	; 62
    708a:	29 97       	sbiw	r28, 0x09	; 9
    708c:	0f b6       	in	r0, 0x3f	; 63
    708e:	f8 94       	cli
    7090:	de bf       	out	0x3e, r29	; 62
    7092:	0f be       	out	0x3f, r0	; 63
    7094:	cd bf       	out	0x3d, r28	; 61
  const uint8_t* base = m_font;
    7096:	fc 01       	movw	r30, r24
    7098:	03 85       	ldd	r16, Z+11	; 0x0b
    709a:	14 85       	ldd	r17, Z+12	; 0x0c
  if (!base) return 0;
    709c:	01 15       	cp	r16, r1
    709e:	11 05       	cpc	r17, r1
    70a0:	09 f4       	brne	.+2      	; 0x70a4 <_ZN12SSD1306Ascii5writeEh+0x42>
    70a2:	25 c1       	rjmp	.+586    	; 0x72ee <_ZN12SSD1306Ascii5writeEh+0x28c>
    70a4:	99 87       	std	Y+9, r25	; 0x09
    70a6:	88 87       	std	Y+8, r24	; 0x08
  uint16_t size = readFontByte(base++) << 8;
    70a8:	f8 01       	movw	r30, r16
    70aa:	b4 91       	lpm	r27, Z
  size |= readFontByte(base++);
    70ac:	31 96       	adiw	r30, 0x01	; 1
    70ae:	44 91       	lpm	r20, Z
    70b0:	31 96       	adiw	r30, 0x01	; 1
  uint8_t w = readFontByte(base++);
    70b2:	44 90       	lpm	r4, Z
    70b4:	31 96       	adiw	r30, 0x01	; 1
  uint8_t h = readFontByte(base++);
    70b6:	a4 91       	lpm	r26, Z
  uint8_t nr = (h + 7)/8;
    70b8:	ea 2e       	mov	r14, r26
    70ba:	f1 2c       	mov	r15, r1
    70bc:	f7 e0       	ldi	r31, 0x07	; 7
    70be:	ef 0e       	add	r14, r31
    70c0:	f1 1c       	adc	r15, r1
    70c2:	83 e0       	ldi	r24, 0x03	; 3
    70c4:	f5 94       	asr	r15
    70c6:	e7 94       	ror	r14
    70c8:	8a 95       	dec	r24
    70ca:	e1 f7       	brne	.-8      	; 0x70c4 <_ZN12SSD1306Ascii5writeEh+0x62>
    70cc:	eb 82       	std	Y+3, r14	; 0x03
  const uint8_t* base = m_font;
  if (!base) return 0;
  uint16_t size = readFontByte(base++) << 8;
  size |= readFontByte(base++);
  uint8_t w = readFontByte(base++);
  uint8_t h = readFontByte(base++);
    70ce:	f8 01       	movw	r30, r16
    70d0:	34 96       	adiw	r30, 0x04	; 4
  uint8_t nr = (h + 7)/8;
  uint8_t first = readFontByte(base++);
    70d2:	74 91       	lpm	r23, Z
    70d4:	31 96       	adiw	r30, 0x01	; 1
  uint8_t count = readFontByte(base++);
    70d6:	e4 91       	lpm	r30, Z
  if (ch < first || ch >= (first + count)) {
    70d8:	67 17       	cp	r22, r23
    70da:	58 f0       	brcs	.+22     	; 0x70f2 <_ZN12SSD1306Ascii5writeEh+0x90>
    70dc:	86 2f       	mov	r24, r22
    70de:	90 e0       	ldi	r25, 0x00	; 0
    70e0:	2e 2f       	mov	r18, r30
    70e2:	30 e0       	ldi	r19, 0x00	; 0
    70e4:	f9 01       	movw	r30, r18
    70e6:	e7 0f       	add	r30, r23
    70e8:	f1 1d       	adc	r31, r1
    70ea:	8e 17       	cp	r24, r30
    70ec:	9f 07       	cpc	r25, r31
    70ee:	0c f4       	brge	.+2      	; 0x70f2 <_ZN12SSD1306Ascii5writeEh+0x90>
    70f0:	41 c0       	rjmp	.+130    	; 0x7174 <_ZN12SSD1306Ascii5writeEh+0x112>
    if (ch == '\r') {
    70f2:	6d 30       	cpi	r22, 0x0D	; 13
    70f4:	31 f4       	brne	.+12     	; 0x7102 <_ZN12SSD1306Ascii5writeEh+0xa0>
      setCol(0);
    70f6:	60 e0       	ldi	r22, 0x00	; 0
    70f8:	88 85       	ldd	r24, Y+8	; 0x08
    70fa:	99 85       	ldd	r25, Y+9	; 0x09
    70fc:	0e 94 46 37 	call	0x6e8c	; 0x6e8c <_ZN12SSD1306Ascii6setColEh>
    7100:	f9 c0       	rjmp	.+498    	; 0x72f4 <_ZN12SSD1306Ascii5writeEh+0x292>
      return 1;      
    }    
    if (ch == '\n') {
    7102:	6a 30       	cpi	r22, 0x0A	; 10
    7104:	09 f0       	breq	.+2      	; 0x7108 <_ZN12SSD1306Ascii5writeEh+0xa6>
    7106:	f3 c0       	rjmp	.+486    	; 0x72ee <_ZN12SSD1306Ascii5writeEh+0x28c>
      #if INCLUDE_SCROLLING == 0
      setCursor(0, m_row + m_magFactor*nr);
      #else  // INCLUDE_SCROLLING
      uint8_t tmp = m_row + m_magFactor*nr;
    7108:	e8 85       	ldd	r30, Y+8	; 0x08
    710a:	f9 85       	ldd	r31, Y+9	; 0x09
    710c:	81 85       	ldd	r24, Z+9	; 0x09
    710e:	15 81       	ldd	r17, Z+5	; 0x05
    7110:	8e 9d       	mul	r24, r14
    7112:	10 0d       	add	r17, r0
    7114:	11 24       	eor	r1, r1
      if (tmp >= m_displayHeight/8  && m_scroll) {
    7116:	87 81       	ldd	r24, Z+7	; 0x07
    7118:	86 95       	lsr	r24
    711a:	86 95       	lsr	r24
    711c:	86 95       	lsr	r24
    711e:	18 17       	cp	r17, r24
    7120:	30 f0       	brcs	.+12     	; 0x712e <_ZN12SSD1306Ascii5writeEh+0xcc>
    7122:	82 85       	ldd	r24, Z+10	; 0x0a
    7124:	88 23       	and	r24, r24
    7126:	19 f0       	breq	.+6      	; 0x712e <_ZN12SSD1306Ascii5writeEh+0xcc>
        tmp = 0;
        m_scroll = 2;
    7128:	82 e0       	ldi	r24, 0x02	; 2
    712a:	82 87       	std	Z+10, r24	; 0x0a
      #if INCLUDE_SCROLLING == 0
      setCursor(0, m_row + m_magFactor*nr);
      #else  // INCLUDE_SCROLLING
      uint8_t tmp = m_row + m_magFactor*nr;
      if (tmp >= m_displayHeight/8  && m_scroll) {
        tmp = 0;
    712c:	10 e0       	ldi	r17, 0x00	; 0
        m_scroll = 2;
      }
      setCursor(0, tmp);
    712e:	41 2f       	mov	r20, r17
    7130:	60 e0       	ldi	r22, 0x00	; 0
    7132:	88 85       	ldd	r24, Y+8	; 0x08
    7134:	99 85       	ldd	r25, Y+9	; 0x09
    7136:	0e 94 71 37 	call	0x6ee2	; 0x6ee2 <_ZN12SSD1306Ascii9setCursorEhh>
      if (m_scroll > 1) {
    713a:	e8 85       	ldd	r30, Y+8	; 0x08
    713c:	f9 85       	ldd	r31, Y+9	; 0x09
    713e:	82 85       	ldd	r24, Z+10	; 0x0a
    7140:	82 30       	cpi	r24, 0x02	; 2
    7142:	08 f4       	brcc	.+2      	; 0x7146 <_ZN12SSD1306Ascii5writeEh+0xe4>
    7144:	d7 c0       	rjmp	.+430    	; 0x72f4 <_ZN12SSD1306Ascii5writeEh+0x292>
        clearToEOL();
    7146:	cf 01       	movw	r24, r30
    7148:	0e 94 16 38 	call	0x702c	; 0x702c <_ZN12SSD1306Ascii10clearToEOLEv>
        tmp +=  m_magFactor*nr;
    714c:	e8 85       	ldd	r30, Y+8	; 0x08
    714e:	f9 85       	ldd	r31, Y+9	; 0x09
    7150:	81 85       	ldd	r24, Z+9	; 0x09
    7152:	61 2f       	mov	r22, r17
    7154:	8e 9d       	mul	r24, r14
    7156:	60 0d       	add	r22, r0
    7158:	11 24       	eor	r1, r1
        tmp *= 8;
    715a:	66 0f       	add	r22, r22
    715c:	66 0f       	add	r22, r22
    715e:	66 0f       	add	r22, r22
        if (tmp > m_displayHeight) {
    7160:	87 81       	ldd	r24, Z+7	; 0x07
    7162:	86 17       	cp	r24, r22
    7164:	08 f4       	brcc	.+2      	; 0x7168 <_ZN12SSD1306Ascii5writeEh+0x106>
          tmp = 0;
    7166:	60 e0       	ldi	r22, 0x00	; 0
        }
        ssd1306WriteCmd(SSD1306_SETSTARTLINE | tmp);        
    7168:	60 64       	ori	r22, 0x40	; 64
    716a:	88 85       	ldd	r24, Y+8	; 0x08
    716c:	99 85       	ldd	r25, Y+9	; 0x09
    716e:	0e 94 2d 37 	call	0x6e5a	; 0x6e5a <_ZN12SSD1306Ascii15ssd1306WriteCmdEh>
    7172:	c0 c0       	rjmp	.+384    	; 0x72f4 <_ZN12SSD1306Ascii5writeEh+0x292>
};
//------------------------------------------------------------------------------
size_t SSD1306Ascii::write(uint8_t ch) {
  const uint8_t* base = m_font;
  if (!base) return 0;
  uint16_t size = readFontByte(base++) << 8;
    7174:	50 e0       	ldi	r21, 0x00	; 0
  size |= readFontByte(base++);
    7176:	5b 2b       	or	r21, r27
  uint8_t w = readFontByte(base++);
  uint8_t h = readFontByte(base++);
  uint8_t nr = (h + 7)/8;
  uint8_t first = readFontByte(base++);
  uint8_t count = readFontByte(base++);
    7178:	c8 01       	movw	r24, r16
    717a:	06 96       	adiw	r24, 0x06	; 6
      #endif  // INCLUDE_SCROLLING      
      return 1;
    }
    return 0;
  }
  ch -= first;
    717c:	67 1b       	sub	r22, r23
  uint8_t s = m_magFactor;
    717e:	e8 85       	ldd	r30, Y+8	; 0x08
    7180:	f9 85       	ldd	r31, Y+9	; 0x09
    7182:	f1 85       	ldd	r31, Z+9	; 0x09
    7184:	f9 83       	std	Y+1, r31	; 0x01
  uint8_t thieleShift = 0;
  if (size < 2) {
    7186:	42 30       	cpi	r20, 0x02	; 2
    7188:	51 05       	cpc	r21, r1
    718a:	88 f4       	brcc	.+34     	; 0x71ae <_ZN12SSD1306Ascii5writeEh+0x14c>
    if (size) s = 0;
    718c:	45 2b       	or	r20, r21
    718e:	09 f0       	breq	.+2      	; 0x7192 <_ZN12SSD1306Ascii5writeEh+0x130>
    7190:	19 82       	std	Y+1, r1	; 0x01
    base += nr*w*ch;
    7192:	4e 9c       	mul	r4, r14
    7194:	90 01       	movw	r18, r0
    7196:	4f 9c       	mul	r4, r15
    7198:	30 0d       	add	r19, r0
    719a:	11 24       	eor	r1, r1
    719c:	62 9f       	mul	r22, r18
    719e:	80 01       	movw	r16, r0
    71a0:	63 9f       	mul	r22, r19
    71a2:	10 0d       	add	r17, r0
    71a4:	11 24       	eor	r1, r1
    71a6:	08 0f       	add	r16, r24
    71a8:	19 1f       	adc	r17, r25
    }
    return 0;
  }
  ch -= first;
  uint8_t s = m_magFactor;
  uint8_t thieleShift = 0;
    71aa:	31 2c       	mov	r3, r1
    71ac:	24 c0       	rjmp	.+72     	; 0x71f6 <_ZN12SSD1306Ascii5writeEh+0x194>
    71ae:	ea 2f       	mov	r30, r26
    71b0:	e7 70       	andi	r30, 0x07	; 7
  if (size < 2) {
    if (size) s = 0;
    base += nr*w*ch;
  } else {
    if (h & 7) {
    71b2:	21 f0       	breq	.+8      	; 0x71bc <_ZN12SSD1306Ascii5writeEh+0x15a>
      thieleShift = 8 - (h & 7);
    71b4:	48 e0       	ldi	r20, 0x08	; 8
    71b6:	34 2e       	mov	r3, r20
    71b8:	3e 1a       	sub	r3, r30
    71ba:	01 c0       	rjmp	.+2      	; 0x71be <_ZN12SSD1306Ascii5writeEh+0x15c>
    }
    return 0;
  }
  ch -= first;
  uint8_t s = m_magFactor;
  uint8_t thieleShift = 0;
    71bc:	31 2c       	mov	r3, r1
    71be:	a8 2f       	mov	r26, r24
    71c0:	fc 01       	movw	r30, r24
    base += nr*w*ch;
  } else {
    if (h & 7) {
      thieleShift = 8 - (h & 7);
    }
    uint16_t index = 0;
    71c2:	40 e0       	ldi	r20, 0x00	; 0
    71c4:	50 e0       	ldi	r21, 0x00	; 0
    for (uint8_t i = 0; i < ch; i++) {
    71c6:	7e 2f       	mov	r23, r30
    71c8:	7a 1b       	sub	r23, r26
    71ca:	76 17       	cp	r23, r22
    71cc:	28 f4       	brcc	.+10     	; 0x71d8 <_ZN12SSD1306Ascii5writeEh+0x176>
      index += readFontByte(base + i);
    71ce:	74 91       	lpm	r23, Z
    71d0:	47 0f       	add	r20, r23
    71d2:	51 1d       	adc	r21, r1
    71d4:	31 96       	adiw	r30, 0x01	; 1
  } else {
    if (h & 7) {
      thieleShift = 8 - (h & 7);
    }
    uint16_t index = 0;
    for (uint8_t i = 0; i < ch; i++) {
    71d6:	f7 cf       	rjmp	.-18     	; 0x71c6 <_ZN12SSD1306Ascii5writeEh+0x164>
      index += readFontByte(base + i);
    }
    w = readFontByte(base + ch);
    71d8:	fc 01       	movw	r30, r24
    71da:	e6 0f       	add	r30, r22
    71dc:	f1 1d       	adc	r31, r1
    71de:	44 90       	lpm	r4, Z
    base += nr*index + count;
    71e0:	e4 9e       	mul	r14, r20
    71e2:	80 01       	movw	r16, r0
    71e4:	e5 9e       	mul	r14, r21
    71e6:	10 0d       	add	r17, r0
    71e8:	f4 9e       	mul	r15, r20
    71ea:	10 0d       	add	r17, r0
    71ec:	11 24       	eor	r1, r1
    71ee:	02 0f       	add	r16, r18
    71f0:	13 1f       	adc	r17, r19
    71f2:	08 0f       	add	r16, r24
    71f4:	19 1f       	adc	r17, r25
  }
  uint8_t scol = m_col;
    71f6:	e8 85       	ldd	r30, Y+8	; 0x08
    71f8:	f9 85       	ldd	r31, Y+9	; 0x09
    71fa:	f4 81       	ldd	r31, Z+4	; 0x04
    71fc:	fc 83       	std	Y+4, r31	; 0x04
  uint8_t srow = m_row;
    71fe:	e8 85       	ldd	r30, Y+8	; 0x08
    7200:	f9 85       	ldd	r31, Y+9	; 0x09
    7202:	f5 81       	ldd	r31, Z+5	; 0x05
    7204:	fd 83       	std	Y+5, r31	; 0x05
    7206:	84 2d       	mov	r24, r4
    7208:	90 e0       	ldi	r25, 0x00	; 0
    720a:	9f 83       	std	Y+7, r25	; 0x07
    720c:	8e 83       	std	Y+6, r24	; 0x06
    720e:	81 2c       	mov	r8, r1
    7210:	91 2c       	mov	r9, r1
    7212:	c1 2c       	mov	r12, r1
    7214:	d1 2c       	mov	r13, r1
    7216:	ca 82       	std	Y+2, r12	; 0x02
  for (uint8_t r = 0; r < nr; r++) {
    7218:	9b 81       	ldd	r25, Y+3	; 0x03
    721a:	c9 16       	cp	r12, r25
    721c:	08 f0       	brcs	.+2      	; 0x7220 <_ZN12SSD1306Ascii5writeEh+0x1be>
    721e:	61 c0       	rjmp	.+194    	; 0x72e2 <_ZN12SSD1306Ascii5writeEh+0x280>
    7220:	21 2c       	mov	r2, r1
    for (uint8_t m = 0; m < m_magFactor; m++) {
      if (r || m) setCursor(scol, m_row + 1);
      for (uint8_t c = 0; c < w; c++) {
        uint8_t b = readFontByte(base + c + r*w);
        if (thieleShift && (r + 1) == nr) {
    7222:	36 01       	movw	r6, r12
    7224:	ff ef       	ldi	r31, 0xFF	; 255
    7226:	6f 1a       	sub	r6, r31
    7228:	7f 0a       	sbc	r7, r31
    base += nr*index + count;
  }
  uint8_t scol = m_col;
  uint8_t srow = m_row;
  for (uint8_t r = 0; r < nr; r++) {
    for (uint8_t m = 0; m < m_magFactor; m++) {
    722a:	e8 85       	ldd	r30, Y+8	; 0x08
    722c:	f9 85       	ldd	r31, Y+9	; 0x09
    722e:	81 85       	ldd	r24, Z+9	; 0x09
    7230:	28 16       	cp	r2, r24
    7232:	08 f0       	brcs	.+2      	; 0x7236 <_ZN12SSD1306Ascii5writeEh+0x1d4>
    7234:	4e c0       	rjmp	.+156    	; 0x72d2 <_ZN12SSD1306Ascii5writeEh+0x270>
      if (r || m) setCursor(scol, m_row + 1);
    7236:	fa 81       	ldd	r31, Y+2	; 0x02
    7238:	f1 11       	cpse	r31, r1
    723a:	02 c0       	rjmp	.+4      	; 0x7240 <_ZN12SSD1306Ascii5writeEh+0x1de>
    723c:	22 20       	and	r2, r2
    723e:	41 f0       	breq	.+16     	; 0x7250 <_ZN12SSD1306Ascii5writeEh+0x1ee>
    7240:	e8 85       	ldd	r30, Y+8	; 0x08
    7242:	f9 85       	ldd	r31, Y+9	; 0x09
    7244:	45 81       	ldd	r20, Z+5	; 0x05
    7246:	4f 5f       	subi	r20, 0xFF	; 255
    7248:	6c 81       	ldd	r22, Y+4	; 0x04
    724a:	cf 01       	movw	r24, r30
    724c:	0e 94 71 37 	call	0x6ee2	; 0x6ee2 <_ZN12SSD1306Ascii9setCursorEhh>
    7250:	a1 2c       	mov	r10, r1
    7252:	b1 2c       	mov	r11, r1
      for (uint8_t c = 0; c < w; c++) {
    7254:	a4 14       	cp	r10, r4
    7256:	10 f0       	brcs	.+4      	; 0x725c <_ZN12SSD1306Ascii5writeEh+0x1fa>
    7258:	b1 2c       	mov	r11, r1
    725a:	2f c0       	rjmp	.+94     	; 0x72ba <_ZN12SSD1306Ascii5writeEh+0x258>
        uint8_t b = readFontByte(base + c + r*w);
    725c:	f5 01       	movw	r30, r10
    725e:	e8 0d       	add	r30, r8
    7260:	f9 1d       	adc	r31, r9
    7262:	e0 0f       	add	r30, r16
    7264:	f1 1f       	adc	r31, r17
    7266:	54 90       	lpm	r5, Z
        if (thieleShift && (r + 1) == nr) {
    7268:	33 20       	and	r3, r3
    726a:	61 f0       	breq	.+24     	; 0x7284 <_ZN12SSD1306Ascii5writeEh+0x222>
    726c:	e6 14       	cp	r14, r6
    726e:	f7 04       	cpc	r15, r7
    7270:	49 f4       	brne	.+18     	; 0x7284 <_ZN12SSD1306Ascii5writeEh+0x222>
          b >>= thieleShift;
    7272:	e5 2d       	mov	r30, r5
    7274:	f0 e0       	ldi	r31, 0x00	; 0
    7276:	03 2c       	mov	r0, r3
    7278:	02 c0       	rjmp	.+4      	; 0x727e <_ZN12SSD1306Ascii5writeEh+0x21c>
    727a:	f5 95       	asr	r31
    727c:	e7 95       	ror	r30
    727e:	0a 94       	dec	r0
    7280:	e2 f7       	brpl	.-8      	; 0x727a <_ZN12SSD1306Ascii5writeEh+0x218>
    7282:	5e 2e       	mov	r5, r30
        }
        if (m_magFactor == 2) {
    7284:	e8 85       	ldd	r30, Y+8	; 0x08
    7286:	f9 85       	ldd	r31, Y+9	; 0x09
    7288:	81 85       	ldd	r24, Z+9	; 0x09
    728a:	82 30       	cpi	r24, 0x02	; 2
    728c:	69 f4       	brne	.+26     	; 0x72a8 <_ZN12SSD1306Ascii5writeEh+0x246>
           b = m ?  b >> 4 : b & 0XF;
    728e:	e5 2d       	mov	r30, r5
    7290:	21 10       	cpse	r2, r1
    7292:	e2 95       	swap	r30
    7294:	ef 70       	andi	r30, 0x0F	; 15
           b = readFontByte(scaledNibble + b);
    7296:	f0 e0       	ldi	r31, 0x00	; 0
    7298:	e9 55       	subi	r30, 0x59	; 89
    729a:	f6 49       	sbci	r31, 0x96	; 150
    729c:	54 90       	lpm	r5, Z
           ssd1306WriteRamBuf(b);
    729e:	65 2d       	mov	r22, r5
    72a0:	88 85       	ldd	r24, Y+8	; 0x08
    72a2:	99 85       	ldd	r25, Y+9	; 0x09
    72a4:	0e 94 7f 37 	call	0x6efe	; 0x6efe <_ZN12SSD1306Ascii18ssd1306WriteRamBufEh>
        }
        ssd1306WriteRamBuf(b);
    72a8:	65 2d       	mov	r22, r5
    72aa:	88 85       	ldd	r24, Y+8	; 0x08
    72ac:	99 85       	ldd	r25, Y+9	; 0x09
    72ae:	0e 94 7f 37 	call	0x6efe	; 0x6efe <_ZN12SSD1306Ascii18ssd1306WriteRamBufEh>
    72b2:	ff ef       	ldi	r31, 0xFF	; 255
    72b4:	af 1a       	sub	r10, r31
    72b6:	bf 0a       	sbc	r11, r31
  uint8_t scol = m_col;
  uint8_t srow = m_row;
  for (uint8_t r = 0; r < nr; r++) {
    for (uint8_t m = 0; m < m_magFactor; m++) {
      if (r || m) setCursor(scol, m_row + 1);
      for (uint8_t c = 0; c < w; c++) {
    72b8:	cd cf       	rjmp	.-102    	; 0x7254 <_ZN12SSD1306Ascii5writeEh+0x1f2>
           b = readFontByte(scaledNibble + b);
           ssd1306WriteRamBuf(b);
        }
        ssd1306WriteRamBuf(b);
      }
      for (uint8_t i = 0; i < s; i++) {
    72ba:	79 81       	ldd	r23, Y+1	; 0x01
    72bc:	7b 15       	cp	r23, r11
    72be:	39 f0       	breq	.+14     	; 0x72ce <_ZN12SSD1306Ascii5writeEh+0x26c>
        ssd1306WriteRamBuf(0);
    72c0:	60 e0       	ldi	r22, 0x00	; 0
    72c2:	88 85       	ldd	r24, Y+8	; 0x08
    72c4:	99 85       	ldd	r25, Y+9	; 0x09
    72c6:	0e 94 7f 37 	call	0x6efe	; 0x6efe <_ZN12SSD1306Ascii18ssd1306WriteRamBufEh>
           b = readFontByte(scaledNibble + b);
           ssd1306WriteRamBuf(b);
        }
        ssd1306WriteRamBuf(b);
      }
      for (uint8_t i = 0; i < s; i++) {
    72ca:	b3 94       	inc	r11
    72cc:	f6 cf       	rjmp	.-20     	; 0x72ba <_ZN12SSD1306Ascii5writeEh+0x258>
    base += nr*index + count;
  }
  uint8_t scol = m_col;
  uint8_t srow = m_row;
  for (uint8_t r = 0; r < nr; r++) {
    for (uint8_t m = 0; m < m_magFactor; m++) {
    72ce:	23 94       	inc	r2
    72d0:	ac cf       	rjmp	.-168    	; 0x722a <_ZN12SSD1306Ascii5writeEh+0x1c8>
    72d2:	8f ef       	ldi	r24, 0xFF	; 255
    72d4:	c8 1a       	sub	r12, r24
    72d6:	d8 0a       	sbc	r13, r24
    72d8:	ee 81       	ldd	r30, Y+6	; 0x06
    72da:	ff 81       	ldd	r31, Y+7	; 0x07
    72dc:	8e 0e       	add	r8, r30
    72de:	9f 1e       	adc	r9, r31
    w = readFontByte(base + ch);
    base += nr*index + count;
  }
  uint8_t scol = m_col;
  uint8_t srow = m_row;
  for (uint8_t r = 0; r < nr; r++) {
    72e0:	9a cf       	rjmp	.-204    	; 0x7216 <_ZN12SSD1306Ascii5writeEh+0x1b4>
      for (uint8_t i = 0; i < s; i++) {
        ssd1306WriteRamBuf(0);
      }
    }
  }
  setRow(srow);
    72e2:	6d 81       	ldd	r22, Y+5	; 0x05
    72e4:	88 85       	ldd	r24, Y+8	; 0x08
    72e6:	99 85       	ldd	r25, Y+9	; 0x09
    72e8:	0e 94 65 37 	call	0x6eca	; 0x6eca <_ZN12SSD1306Ascii6setRowEh>
    72ec:	03 c0       	rjmp	.+6      	; 0x72f4 <_ZN12SSD1306Ascii5writeEh+0x292>
  0XF0, 0XF3, 0XFC, 0XFF
};
//------------------------------------------------------------------------------
size_t SSD1306Ascii::write(uint8_t ch) {
  const uint8_t* base = m_font;
  if (!base) return 0;
    72ee:	80 e0       	ldi	r24, 0x00	; 0
    72f0:	90 e0       	ldi	r25, 0x00	; 0
    72f2:	02 c0       	rjmp	.+4      	; 0x72f8 <_ZN12SSD1306Ascii5writeEh+0x296>
          tmp = 0;
        }
        ssd1306WriteCmd(SSD1306_SETSTARTLINE | tmp);        
      }
      #endif  // INCLUDE_SCROLLING      
      return 1;
    72f4:	81 e0       	ldi	r24, 0x01	; 1
    72f6:	90 e0       	ldi	r25, 0x00	; 0
      }
    }
  }
  setRow(srow);
  return 1;
}
    72f8:	29 96       	adiw	r28, 0x09	; 9
    72fa:	0f b6       	in	r0, 0x3f	; 63
    72fc:	f8 94       	cli
    72fe:	de bf       	out	0x3e, r29	; 62
    7300:	0f be       	out	0x3f, r0	; 63
    7302:	cd bf       	out	0x3d, r28	; 61
    7304:	df 91       	pop	r29
    7306:	cf 91       	pop	r28
    7308:	1f 91       	pop	r17
    730a:	0f 91       	pop	r16
    730c:	ff 90       	pop	r15
    730e:	ef 90       	pop	r14
    7310:	df 90       	pop	r13
    7312:	cf 90       	pop	r12
    7314:	bf 90       	pop	r11
    7316:	af 90       	pop	r10
    7318:	9f 90       	pop	r9
    731a:	8f 90       	pop	r8
    731c:	7f 90       	pop	r7
    731e:	6f 90       	pop	r6
    7320:	5f 90       	pop	r5
    7322:	4f 90       	pop	r4
    7324:	3f 90       	pop	r3
    7326:	2f 90       	pop	r2
    7328:	08 95       	ret

0000732a <_ZN7TwoWire9availableEv>:
}

// sets function called on slave read
void TwoWire::onRequest( void (*function)(void) )
{
  user_onRequest = function;
    732a:	80 91 48 03 	lds	r24, 0x0348	; 0x800348 <_ZN7TwoWire14rxBufferLengthE>
    732e:	90 e0       	ldi	r25, 0x00	; 0
    7330:	20 91 49 03 	lds	r18, 0x0349	; 0x800349 <_ZN7TwoWire13rxBufferIndexE>
    7334:	82 1b       	sub	r24, r18
    7336:	91 09       	sbc	r25, r1
    7338:	08 95       	ret

0000733a <_ZN7TwoWire4readEv>:
    733a:	90 91 49 03 	lds	r25, 0x0349	; 0x800349 <_ZN7TwoWire13rxBufferIndexE>
    733e:	80 91 48 03 	lds	r24, 0x0348	; 0x800348 <_ZN7TwoWire14rxBufferLengthE>
    7342:	98 17       	cp	r25, r24
    7344:	50 f4       	brcc	.+20     	; 0x735a <_ZN7TwoWire4readEv+0x20>
    7346:	e9 2f       	mov	r30, r25
    7348:	f0 e0       	ldi	r31, 0x00	; 0
    734a:	e6 5b       	subi	r30, 0xB6	; 182
    734c:	fc 4f       	sbci	r31, 0xFC	; 252
    734e:	20 81       	ld	r18, Z
    7350:	30 e0       	ldi	r19, 0x00	; 0
    7352:	9f 5f       	subi	r25, 0xFF	; 255
    7354:	90 93 49 03 	sts	0x0349, r25	; 0x800349 <_ZN7TwoWire13rxBufferIndexE>
    7358:	02 c0       	rjmp	.+4      	; 0x735e <_ZN7TwoWire4readEv+0x24>
    735a:	2f ef       	ldi	r18, 0xFF	; 255
    735c:	3f ef       	ldi	r19, 0xFF	; 255
    735e:	c9 01       	movw	r24, r18
    7360:	08 95       	ret

00007362 <_ZN7TwoWire4peekEv>:
    7362:	e0 91 49 03 	lds	r30, 0x0349	; 0x800349 <_ZN7TwoWire13rxBufferIndexE>
    7366:	80 91 48 03 	lds	r24, 0x0348	; 0x800348 <_ZN7TwoWire14rxBufferLengthE>
    736a:	e8 17       	cp	r30, r24
    736c:	30 f4       	brcc	.+12     	; 0x737a <_ZN7TwoWire4peekEv+0x18>
    736e:	f0 e0       	ldi	r31, 0x00	; 0
    7370:	e6 5b       	subi	r30, 0xB6	; 182
    7372:	fc 4f       	sbci	r31, 0xFC	; 252
    7374:	80 81       	ld	r24, Z
    7376:	90 e0       	ldi	r25, 0x00	; 0
    7378:	08 95       	ret
    737a:	8f ef       	ldi	r24, 0xFF	; 255
    737c:	9f ef       	ldi	r25, 0xFF	; 255
    737e:	08 95       	ret

00007380 <_ZN7TwoWire5flushEv>:
    7380:	08 95       	ret

00007382 <_ZN7TwoWire5writeEPKhj>:
    7382:	cf 92       	push	r12
    7384:	df 92       	push	r13
    7386:	ef 92       	push	r14
    7388:	ff 92       	push	r15
    738a:	0f 93       	push	r16
    738c:	1f 93       	push	r17
    738e:	cf 93       	push	r28
    7390:	df 93       	push	r29
    7392:	7c 01       	movw	r14, r24
    7394:	cb 01       	movw	r24, r22
    7396:	8a 01       	movw	r16, r20
    7398:	20 91 24 03 	lds	r18, 0x0324	; 0x800324 <_ZN7TwoWire12transmittingE>
    739c:	22 23       	and	r18, r18
    739e:	89 f0       	breq	.+34     	; 0x73c2 <_ZN7TwoWire5writeEPKhj+0x40>
    73a0:	eb 01       	movw	r28, r22
    73a2:	6b 01       	movw	r12, r22
    73a4:	c4 0e       	add	r12, r20
    73a6:	d5 1e       	adc	r13, r21
    73a8:	cc 15       	cp	r28, r12
    73aa:	dd 05       	cpc	r29, r13
    73ac:	69 f0       	breq	.+26     	; 0x73c8 <_ZN7TwoWire5writeEPKhj+0x46>
    73ae:	69 91       	ld	r22, Y+
    73b0:	d7 01       	movw	r26, r14
    73b2:	ed 91       	ld	r30, X+
    73b4:	fc 91       	ld	r31, X
    73b6:	01 90       	ld	r0, Z+
    73b8:	f0 81       	ld	r31, Z
    73ba:	e0 2d       	mov	r30, r0
    73bc:	c7 01       	movw	r24, r14
    73be:	09 95       	icall
    73c0:	f3 cf       	rjmp	.-26     	; 0x73a8 <_ZN7TwoWire5writeEPKhj+0x26>
    73c2:	64 2f       	mov	r22, r20
    73c4:	0e 94 28 3b 	call	0x7650	; 0x7650 <twi_transmit>
    73c8:	c8 01       	movw	r24, r16
    73ca:	df 91       	pop	r29
    73cc:	cf 91       	pop	r28
    73ce:	1f 91       	pop	r17
    73d0:	0f 91       	pop	r16
    73d2:	ff 90       	pop	r15
    73d4:	ef 90       	pop	r14
    73d6:	df 90       	pop	r13
    73d8:	cf 90       	pop	r12
    73da:	08 95       	ret

000073dc <_ZN7TwoWire5writeEh>:
    73dc:	cf 93       	push	r28
    73de:	df 93       	push	r29
    73e0:	1f 92       	push	r1
    73e2:	cd b7       	in	r28, 0x3d	; 61
    73e4:	de b7       	in	r29, 0x3e	; 62
    73e6:	69 83       	std	Y+1, r22	; 0x01
    73e8:	20 91 24 03 	lds	r18, 0x0324	; 0x800324 <_ZN7TwoWire12transmittingE>
    73ec:	22 23       	and	r18, r18
    73ee:	d1 f0       	breq	.+52     	; 0x7424 <_ZN7TwoWire5writeEh+0x48>
    73f0:	20 91 25 03 	lds	r18, 0x0325	; 0x800325 <_ZN7TwoWire14txBufferLengthE>
    73f4:	20 32       	cpi	r18, 0x20	; 32
    73f6:	40 f0       	brcs	.+16     	; 0x7408 <_ZN7TwoWire5writeEh+0x2c>
    73f8:	21 e0       	ldi	r18, 0x01	; 1
    73fa:	30 e0       	ldi	r19, 0x00	; 0
    73fc:	fc 01       	movw	r30, r24
    73fe:	33 83       	std	Z+3, r19	; 0x03
    7400:	22 83       	std	Z+2, r18	; 0x02
    7402:	80 e0       	ldi	r24, 0x00	; 0
    7404:	90 e0       	ldi	r25, 0x00	; 0
    7406:	15 c0       	rjmp	.+42     	; 0x7432 <_ZN7TwoWire5writeEh+0x56>
    7408:	80 91 26 03 	lds	r24, 0x0326	; 0x800326 <_ZN7TwoWire13txBufferIndexE>
    740c:	e8 2f       	mov	r30, r24
    740e:	f0 e0       	ldi	r31, 0x00	; 0
    7410:	e9 5d       	subi	r30, 0xD9	; 217
    7412:	fc 4f       	sbci	r31, 0xFC	; 252
    7414:	99 81       	ldd	r25, Y+1	; 0x01
    7416:	90 83       	st	Z, r25
    7418:	8f 5f       	subi	r24, 0xFF	; 255
    741a:	80 93 26 03 	sts	0x0326, r24	; 0x800326 <_ZN7TwoWire13txBufferIndexE>
    741e:	80 93 25 03 	sts	0x0325, r24	; 0x800325 <_ZN7TwoWire14txBufferLengthE>
    7422:	05 c0       	rjmp	.+10     	; 0x742e <_ZN7TwoWire5writeEh+0x52>
    7424:	61 e0       	ldi	r22, 0x01	; 1
    7426:	ce 01       	movw	r24, r28
    7428:	01 96       	adiw	r24, 0x01	; 1
    742a:	0e 94 28 3b 	call	0x7650	; 0x7650 <twi_transmit>
    742e:	81 e0       	ldi	r24, 0x01	; 1
    7430:	90 e0       	ldi	r25, 0x00	; 0
    7432:	0f 90       	pop	r0
    7434:	df 91       	pop	r29
    7436:	cf 91       	pop	r28
    7438:	08 95       	ret

0000743a <_ZN7TwoWireC1Ev>:
    743a:	fc 01       	movw	r30, r24
    743c:	13 82       	std	Z+3, r1	; 0x03
    743e:	12 82       	std	Z+2, r1	; 0x02
    7440:	88 ee       	ldi	r24, 0xE8	; 232
    7442:	93 e0       	ldi	r25, 0x03	; 3
    7444:	a0 e0       	ldi	r26, 0x00	; 0
    7446:	b0 e0       	ldi	r27, 0x00	; 0
    7448:	84 83       	std	Z+4, r24	; 0x04
    744a:	95 83       	std	Z+5, r25	; 0x05
    744c:	a6 83       	std	Z+6, r26	; 0x06
    744e:	b7 83       	std	Z+7, r27	; 0x07
    7450:	81 ef       	ldi	r24, 0xF1	; 241
    7452:	92 e0       	ldi	r25, 0x02	; 2
    7454:	91 83       	std	Z+1, r25	; 0x01
    7456:	80 83       	st	Z, r24
    7458:	08 95       	ret

0000745a <_ZN7TwoWire5beginEv>:
    745a:	10 92 49 03 	sts	0x0349, r1	; 0x800349 <_ZN7TwoWire13rxBufferIndexE>
    745e:	10 92 48 03 	sts	0x0348, r1	; 0x800348 <_ZN7TwoWire14rxBufferLengthE>
    7462:	10 92 26 03 	sts	0x0326, r1	; 0x800326 <_ZN7TwoWire13txBufferIndexE>
    7466:	10 92 25 03 	sts	0x0325, r1	; 0x800325 <_ZN7TwoWire14txBufferLengthE>
    746a:	0c 94 b4 3a 	jmp	0x7568	; 0x7568 <twi_init>

0000746e <_ZN7TwoWire17beginTransmissionEh>:
    746e:	81 e0       	ldi	r24, 0x01	; 1
    7470:	80 93 24 03 	sts	0x0324, r24	; 0x800324 <_ZN7TwoWire12transmittingE>
    7474:	60 93 47 03 	sts	0x0347, r22	; 0x800347 <_ZN7TwoWire9txAddressE>
    7478:	10 92 26 03 	sts	0x0326, r1	; 0x800326 <_ZN7TwoWire13txBufferIndexE>
    747c:	10 92 25 03 	sts	0x0325, r1	; 0x800325 <_ZN7TwoWire14txBufferLengthE>
    7480:	08 95       	ret

00007482 <_ZN7TwoWire15endTransmissionEh>:
    7482:	0f 93       	push	r16
    7484:	06 2f       	mov	r16, r22
    7486:	21 e0       	ldi	r18, 0x01	; 1
    7488:	40 91 25 03 	lds	r20, 0x0325	; 0x800325 <_ZN7TwoWire14txBufferLengthE>
    748c:	67 e2       	ldi	r22, 0x27	; 39
    748e:	73 e0       	ldi	r23, 0x03	; 3
    7490:	80 91 47 03 	lds	r24, 0x0347	; 0x800347 <_ZN7TwoWire9txAddressE>
    7494:	0e 94 d2 3a 	call	0x75a4	; 0x75a4 <twi_writeTo>
    7498:	10 92 26 03 	sts	0x0326, r1	; 0x800326 <_ZN7TwoWire13txBufferIndexE>
    749c:	10 92 25 03 	sts	0x0325, r1	; 0x800325 <_ZN7TwoWire14txBufferLengthE>
    74a0:	10 92 24 03 	sts	0x0324, r1	; 0x800324 <_ZN7TwoWire12transmittingE>
    74a4:	0f 91       	pop	r16
    74a6:	08 95       	ret

000074a8 <_ZN7TwoWire15endTransmissionEv>:
    74a8:	61 e0       	ldi	r22, 0x01	; 1
    74aa:	0c 94 41 3a 	jmp	0x7482	; 0x7482 <_ZN7TwoWire15endTransmissionEh>

000074ae <_GLOBAL__sub_I__ZN7TwoWire8rxBufferE>:
}

// Preinstantiate Objects //////////////////////////////////////////////////////

TwoWire Wire = TwoWire();
    74ae:	88 e1       	ldi	r24, 0x18	; 24
    74b0:	93 e0       	ldi	r25, 0x03	; 3
    74b2:	0c 94 1d 3a 	jmp	0x743a	; 0x743a <_ZN7TwoWireC1Ev>

000074b6 <yield>:
 * libraries or sketches that supports cooperative threads.
 *
 * Its defined as a weak symbol and it can be redefined to implement a
 * real cooperative scheduler.
 */
static void __empty() {
    74b6:	08 95       	ret

000074b8 <turnOffPWM>:
		uint8_t oldSREG = SREG;
                cli();
		*reg |= bit;
		SREG = oldSREG;
	}
}
    74b8:	83 30       	cpi	r24, 0x03	; 3
    74ba:	81 f0       	breq	.+32     	; 0x74dc <turnOffPWM+0x24>
    74bc:	28 f4       	brcc	.+10     	; 0x74c8 <turnOffPWM+0x10>
    74be:	81 30       	cpi	r24, 0x01	; 1
    74c0:	99 f0       	breq	.+38     	; 0x74e8 <turnOffPWM+0x30>
    74c2:	82 30       	cpi	r24, 0x02	; 2
    74c4:	a1 f0       	breq	.+40     	; 0x74ee <turnOffPWM+0x36>
    74c6:	08 95       	ret
    74c8:	87 30       	cpi	r24, 0x07	; 7
    74ca:	a9 f0       	breq	.+42     	; 0x74f6 <turnOffPWM+0x3e>
    74cc:	88 30       	cpi	r24, 0x08	; 8
    74ce:	b9 f0       	breq	.+46     	; 0x74fe <turnOffPWM+0x46>
    74d0:	84 30       	cpi	r24, 0x04	; 4
    74d2:	d1 f4       	brne	.+52     	; 0x7508 <turnOffPWM+0x50>
    74d4:	80 91 80 00 	lds	r24, 0x0080	; 0x800080 <__TEXT_REGION_LENGTH__+0x7e0080>
    74d8:	8f 7d       	andi	r24, 0xDF	; 223
    74da:	03 c0       	rjmp	.+6      	; 0x74e2 <turnOffPWM+0x2a>
    74dc:	80 91 80 00 	lds	r24, 0x0080	; 0x800080 <__TEXT_REGION_LENGTH__+0x7e0080>
    74e0:	8f 77       	andi	r24, 0x7F	; 127
    74e2:	80 93 80 00 	sts	0x0080, r24	; 0x800080 <__TEXT_REGION_LENGTH__+0x7e0080>
    74e6:	08 95       	ret
    74e8:	84 b5       	in	r24, 0x24	; 36
    74ea:	8f 77       	andi	r24, 0x7F	; 127
    74ec:	02 c0       	rjmp	.+4      	; 0x74f2 <turnOffPWM+0x3a>
    74ee:	84 b5       	in	r24, 0x24	; 36
    74f0:	8f 7d       	andi	r24, 0xDF	; 223
    74f2:	84 bd       	out	0x24, r24	; 36
    74f4:	08 95       	ret
    74f6:	80 91 b0 00 	lds	r24, 0x00B0	; 0x8000b0 <__TEXT_REGION_LENGTH__+0x7e00b0>
    74fa:	8f 77       	andi	r24, 0x7F	; 127
    74fc:	03 c0       	rjmp	.+6      	; 0x7504 <turnOffPWM+0x4c>
    74fe:	80 91 b0 00 	lds	r24, 0x00B0	; 0x8000b0 <__TEXT_REGION_LENGTH__+0x7e00b0>
    7502:	8f 7d       	andi	r24, 0xDF	; 223
    7504:	80 93 b0 00 	sts	0x00B0, r24	; 0x8000b0 <__TEXT_REGION_LENGTH__+0x7e00b0>
    7508:	08 95       	ret

0000750a <digitalWrite>:
		#endif
	}
}

void digitalWrite(uint8_t pin, uint8_t val)
{
    750a:	1f 93       	push	r17
    750c:	cf 93       	push	r28
    750e:	df 93       	push	r29
	uint8_t timer = digitalPinToTimer(pin);
    7510:	28 2f       	mov	r18, r24
    7512:	30 e0       	ldi	r19, 0x00	; 0
    7514:	f9 01       	movw	r30, r18
    7516:	e9 54       	subi	r30, 0x49	; 73
    7518:	f6 49       	sbci	r31, 0x96	; 150
    751a:	84 91       	lpm	r24, Z
	uint8_t bit = digitalPinToBitMask(pin);
    751c:	f9 01       	movw	r30, r18
    751e:	e5 53       	subi	r30, 0x35	; 53
    7520:	f6 49       	sbci	r31, 0x96	; 150
    7522:	d4 91       	lpm	r29, Z
	uint8_t port = digitalPinToPort(pin);
    7524:	f9 01       	movw	r30, r18
    7526:	e1 52       	subi	r30, 0x21	; 33
    7528:	f6 49       	sbci	r31, 0x96	; 150
    752a:	c4 91       	lpm	r28, Z
	volatile uint8_t *out;

	if (port == NOT_A_PIN) return;
    752c:	cc 23       	and	r28, r28
    752e:	c1 f0       	breq	.+48     	; 0x7560 <digitalWrite+0x56>
    7530:	16 2f       	mov	r17, r22

	// If the pin that support PWM output, we need to turn it off
	// before doing a digital write.
	if (timer != NOT_ON_TIMER) turnOffPWM(timer);
    7532:	81 11       	cpse	r24, r1
    7534:	0e 94 5c 3a 	call	0x74b8	; 0x74b8 <turnOffPWM>

	out = portOutputRegister(port);
    7538:	ec 2f       	mov	r30, r28
    753a:	f0 e0       	ldi	r31, 0x00	; 0
    753c:	ee 0f       	add	r30, r30
    753e:	ff 1f       	adc	r31, r31
    7540:	ed 50       	subi	r30, 0x0D	; 13
    7542:	f6 49       	sbci	r31, 0x96	; 150
    7544:	a5 91       	lpm	r26, Z+
    7546:	b4 91       	lpm	r27, Z

	uint8_t oldSREG = SREG;
    7548:	9f b7       	in	r25, 0x3f	; 63
	cli();
    754a:	f8 94       	cli

	if (val == LOW) {
    754c:	11 11       	cpse	r17, r1
    754e:	04 c0       	rjmp	.+8      	; 0x7558 <digitalWrite+0x4e>
		*out &= ~bit;
    7550:	8c 91       	ld	r24, X
    7552:	d0 95       	com	r29
    7554:	d8 23       	and	r29, r24
    7556:	02 c0       	rjmp	.+4      	; 0x755c <digitalWrite+0x52>
	} else {
		*out |= bit;
    7558:	ec 91       	ld	r30, X
    755a:	de 2b       	or	r29, r30
    755c:	dc 93       	st	X, r29
	}

	SREG = oldSREG;
    755e:	9f bf       	out	0x3f, r25	; 63
}
    7560:	df 91       	pop	r29
    7562:	cf 91       	pop	r28
    7564:	1f 91       	pop	r17
    7566:	08 95       	ret

00007568 <twi_init>:
{
  // transmit master read ready signal, with or without ack
  if(ack){
    TWCR = _BV(TWEN) | _BV(TWIE) | _BV(TWINT) | _BV(TWEA);
  }else{
	  TWCR = _BV(TWEN) | _BV(TWIE) | _BV(TWINT);
    7568:	10 92 d7 03 	sts	0x03D7, r1	; 0x8003d7 <twi_state>
    756c:	81 e0       	ldi	r24, 0x01	; 1
    756e:	80 93 d5 03 	sts	0x03D5, r24	; 0x8003d5 <twi_sendStop>
    7572:	10 92 d4 03 	sts	0x03D4, r1	; 0x8003d4 <twi_inRepStart>
    7576:	61 e0       	ldi	r22, 0x01	; 1
    7578:	82 e1       	ldi	r24, 0x12	; 18
    757a:	0e 94 85 3a 	call	0x750a	; 0x750a <digitalWrite>
    757e:	61 e0       	ldi	r22, 0x01	; 1
    7580:	83 e1       	ldi	r24, 0x13	; 19
    7582:	0e 94 85 3a 	call	0x750a	; 0x750a <digitalWrite>
    7586:	e9 eb       	ldi	r30, 0xB9	; 185
    7588:	f0 e0       	ldi	r31, 0x00	; 0
    758a:	80 81       	ld	r24, Z
    758c:	8e 7f       	andi	r24, 0xFE	; 254
    758e:	80 83       	st	Z, r24
    7590:	80 81       	ld	r24, Z
    7592:	8d 7f       	andi	r24, 0xFD	; 253
    7594:	80 83       	st	Z, r24
    7596:	88 e4       	ldi	r24, 0x48	; 72
    7598:	80 93 b8 00 	sts	0x00B8, r24	; 0x8000b8 <__TEXT_REGION_LENGTH__+0x7e00b8>
    759c:	85 e4       	ldi	r24, 0x45	; 69
    759e:	80 93 bc 00 	sts	0x00BC, r24	; 0x8000bc <__TEXT_REGION_LENGTH__+0x7e00bc>
    75a2:	08 95       	ret

000075a4 <twi_writeTo>:
    75a4:	0f 93       	push	r16
    75a6:	41 32       	cpi	r20, 0x21	; 33
    75a8:	08 f0       	brcs	.+2      	; 0x75ac <twi_writeTo+0x8>
    75aa:	4a c0       	rjmp	.+148    	; 0x7640 <twi_writeTo+0x9c>
    75ac:	90 91 d7 03 	lds	r25, 0x03D7	; 0x8003d7 <twi_state>
    75b0:	91 11       	cpse	r25, r1
    75b2:	fc cf       	rjmp	.-8      	; 0x75ac <twi_writeTo+0x8>
    75b4:	32 e0       	ldi	r19, 0x02	; 2
    75b6:	30 93 d7 03 	sts	0x03D7, r19	; 0x8003d7 <twi_state>
    75ba:	00 93 d5 03 	sts	0x03D5, r16	; 0x8003d5 <twi_sendStop>
    75be:	3f ef       	ldi	r19, 0xFF	; 255
    75c0:	30 93 6a 03 	sts	0x036A, r19	; 0x80036a <twi_error>
    75c4:	10 92 af 03 	sts	0x03AF, r1	; 0x8003af <twi_masterBufferIndex>
    75c8:	40 93 ae 03 	sts	0x03AE, r20	; 0x8003ae <twi_masterBufferLength>
    75cc:	56 2f       	mov	r21, r22
    75ce:	a0 eb       	ldi	r26, 0xB0	; 176
    75d0:	b3 e0       	ldi	r27, 0x03	; 3
    75d2:	fb 01       	movw	r30, r22
    75d4:	3e 2f       	mov	r19, r30
    75d6:	35 1b       	sub	r19, r21
    75d8:	34 17       	cp	r19, r20
    75da:	18 f4       	brcc	.+6      	; 0x75e2 <twi_writeTo+0x3e>
    75dc:	31 91       	ld	r19, Z+
    75de:	3d 93       	st	X+, r19
    75e0:	f9 cf       	rjmp	.-14     	; 0x75d4 <twi_writeTo+0x30>
    75e2:	10 92 d6 03 	sts	0x03D6, r1	; 0x8003d6 <twi_slarw>
    75e6:	30 91 d6 03 	lds	r19, 0x03D6	; 0x8003d6 <twi_slarw>
    75ea:	88 0f       	add	r24, r24
    75ec:	83 2b       	or	r24, r19
    75ee:	80 93 d6 03 	sts	0x03D6, r24	; 0x8003d6 <twi_slarw>
    75f2:	80 91 d4 03 	lds	r24, 0x03D4	; 0x8003d4 <twi_inRepStart>
    75f6:	81 30       	cpi	r24, 0x01	; 1
    75f8:	61 f4       	brne	.+24     	; 0x7612 <twi_writeTo+0x6e>
    75fa:	10 92 d4 03 	sts	0x03D4, r1	; 0x8003d4 <twi_inRepStart>
    75fe:	80 91 d6 03 	lds	r24, 0x03D6	; 0x8003d6 <twi_slarw>
    7602:	80 93 bb 00 	sts	0x00BB, r24	; 0x8000bb <__TEXT_REGION_LENGTH__+0x7e00bb>
    7606:	80 91 bc 00 	lds	r24, 0x00BC	; 0x8000bc <__TEXT_REGION_LENGTH__+0x7e00bc>
    760a:	83 fd       	sbrc	r24, 3
    760c:	f8 cf       	rjmp	.-16     	; 0x75fe <twi_writeTo+0x5a>
    760e:	85 ec       	ldi	r24, 0xC5	; 197
    7610:	01 c0       	rjmp	.+2      	; 0x7614 <twi_writeTo+0x70>
    7612:	85 ee       	ldi	r24, 0xE5	; 229
    7614:	80 93 bc 00 	sts	0x00BC, r24	; 0x8000bc <__TEXT_REGION_LENGTH__+0x7e00bc>
    7618:	22 23       	and	r18, r18
    761a:	21 f0       	breq	.+8      	; 0x7624 <twi_writeTo+0x80>
    761c:	80 91 d7 03 	lds	r24, 0x03D7	; 0x8003d7 <twi_state>
    7620:	82 30       	cpi	r24, 0x02	; 2
    7622:	d1 f3       	breq	.-12     	; 0x7618 <twi_writeTo+0x74>
    7624:	80 91 6a 03 	lds	r24, 0x036A	; 0x80036a <twi_error>
    7628:	8f 3f       	cpi	r24, 0xFF	; 255
    762a:	79 f0       	breq	.+30     	; 0x764a <twi_writeTo+0xa6>
    762c:	80 91 6a 03 	lds	r24, 0x036A	; 0x80036a <twi_error>
    7630:	80 32       	cpi	r24, 0x20	; 32
    7632:	41 f0       	breq	.+16     	; 0x7644 <twi_writeTo+0xa0>
    7634:	80 91 6a 03 	lds	r24, 0x036A	; 0x80036a <twi_error>
    7638:	80 33       	cpi	r24, 0x30	; 48
    763a:	31 f0       	breq	.+12     	; 0x7648 <twi_writeTo+0xa4>
    763c:	94 e0       	ldi	r25, 0x04	; 4
    763e:	05 c0       	rjmp	.+10     	; 0x764a <twi_writeTo+0xa6>
    7640:	91 e0       	ldi	r25, 0x01	; 1
    7642:	03 c0       	rjmp	.+6      	; 0x764a <twi_writeTo+0xa6>
    7644:	92 e0       	ldi	r25, 0x02	; 2
    7646:	01 c0       	rjmp	.+2      	; 0x764a <twi_writeTo+0xa6>
    7648:	93 e0       	ldi	r25, 0x03	; 3
    764a:	89 2f       	mov	r24, r25
    764c:	0f 91       	pop	r16
    764e:	08 95       	ret

00007650 <twi_transmit>:
    7650:	40 91 8c 03 	lds	r20, 0x038C	; 0x80038c <twi_txBufferLength>
    7654:	26 2f       	mov	r18, r22
    7656:	30 e0       	ldi	r19, 0x00	; 0
    7658:	24 0f       	add	r18, r20
    765a:	31 1d       	adc	r19, r1
    765c:	21 32       	cpi	r18, 0x21	; 33
    765e:	31 05       	cpc	r19, r1
    7660:	dc f4       	brge	.+54     	; 0x7698 <twi_transmit+0x48>
    7662:	20 91 d7 03 	lds	r18, 0x03D7	; 0x8003d7 <twi_state>
    7666:	24 30       	cpi	r18, 0x04	; 4
    7668:	c9 f4       	brne	.+50     	; 0x769c <twi_transmit+0x4c>
    766a:	fc 01       	movw	r30, r24
    766c:	80 e0       	ldi	r24, 0x00	; 0
    766e:	90 e0       	ldi	r25, 0x00	; 0
    7670:	86 17       	cp	r24, r22
    7672:	58 f4       	brcc	.+22     	; 0x768a <twi_transmit+0x3a>
    7674:	30 91 8c 03 	lds	r19, 0x038C	; 0x80038c <twi_txBufferLength>
    7678:	21 91       	ld	r18, Z+
    767a:	dc 01       	movw	r26, r24
    767c:	a2 57       	subi	r26, 0x72	; 114
    767e:	bc 4f       	sbci	r27, 0xFC	; 252
    7680:	a3 0f       	add	r26, r19
    7682:	b1 1d       	adc	r27, r1
    7684:	2c 93       	st	X, r18
    7686:	01 96       	adiw	r24, 0x01	; 1
    7688:	f3 cf       	rjmp	.-26     	; 0x7670 <twi_transmit+0x20>
    768a:	80 91 8c 03 	lds	r24, 0x038C	; 0x80038c <twi_txBufferLength>
    768e:	68 0f       	add	r22, r24
    7690:	60 93 8c 03 	sts	0x038C, r22	; 0x80038c <twi_txBufferLength>
    7694:	80 e0       	ldi	r24, 0x00	; 0
    7696:	08 95       	ret
    7698:	81 e0       	ldi	r24, 0x01	; 1
    769a:	08 95       	ret
    769c:	82 e0       	ldi	r24, 0x02	; 2
    769e:	08 95       	ret

000076a0 <twi_stop>:
 * Output   none
 */
void twi_stop(void)
{
  // send stop condition
  TWCR = _BV(TWEN) | _BV(TWIE) | _BV(TWEA) | _BV(TWINT) | _BV(TWSTO);
    76a0:	85 ed       	ldi	r24, 0xD5	; 213
    76a2:	80 93 bc 00 	sts	0x00BC, r24	; 0x8000bc <__TEXT_REGION_LENGTH__+0x7e00bc>

  // wait for stop condition to be exectued on bus
  // TWINT is not set after a stop condition!
  while(TWCR & _BV(TWSTO)){
    76a6:	80 91 bc 00 	lds	r24, 0x00BC	; 0x8000bc <__TEXT_REGION_LENGTH__+0x7e00bc>
    76aa:	84 fd       	sbrc	r24, 4
    76ac:	fc cf       	rjmp	.-8      	; 0x76a6 <twi_stop+0x6>
    continue;
  }

  // update twi state
  twi_state = TWI_READY;
    76ae:	10 92 d7 03 	sts	0x03D7, r1	; 0x8003d7 <twi_state>
    76b2:	08 95       	ret

000076b4 <twi_releaseBus>:
 * Output   none
 */
void twi_releaseBus(void)
{
  // release bus
  TWCR = _BV(TWEN) | _BV(TWIE) | _BV(TWEA) | _BV(TWINT);
    76b4:	85 ec       	ldi	r24, 0xC5	; 197
    76b6:	80 93 bc 00 	sts	0x00BC, r24	; 0x8000bc <__TEXT_REGION_LENGTH__+0x7e00bc>

  // update twi state
  twi_state = TWI_READY;
    76ba:	10 92 d7 03 	sts	0x03D7, r1	; 0x8003d7 <twi_state>
    76be:	08 95       	ret

000076c0 <__vector_24>:
}

ISR(TWI_vect)
{
    76c0:	1f 92       	push	r1
    76c2:	0f 92       	push	r0
    76c4:	0f b6       	in	r0, 0x3f	; 63
    76c6:	0f 92       	push	r0
    76c8:	11 24       	eor	r1, r1
    76ca:	2f 93       	push	r18
    76cc:	3f 93       	push	r19
    76ce:	4f 93       	push	r20
    76d0:	5f 93       	push	r21
    76d2:	6f 93       	push	r22
    76d4:	7f 93       	push	r23
    76d6:	8f 93       	push	r24
    76d8:	9f 93       	push	r25
    76da:	af 93       	push	r26
    76dc:	bf 93       	push	r27
    76de:	ef 93       	push	r30
    76e0:	ff 93       	push	r31
  switch(TW_STATUS){
    76e2:	80 91 b9 00 	lds	r24, 0x00B9	; 0x8000b9 <__TEXT_REGION_LENGTH__+0x7e00b9>
    76e6:	88 7f       	andi	r24, 0xF8	; 248
    76e8:	80 36       	cpi	r24, 0x60	; 96
    76ea:	09 f4       	brne	.+2      	; 0x76ee <__vector_24+0x2e>
    76ec:	9e c0       	rjmp	.+316    	; 0x782a <__vector_24+0x16a>
    76ee:	78 f5       	brcc	.+94     	; 0x774e <__vector_24+0x8e>
    76f0:	88 32       	cpi	r24, 0x28	; 40
    76f2:	09 f4       	brne	.+2      	; 0x76f6 <__vector_24+0x36>
    76f4:	5d c0       	rjmp	.+186    	; 0x77b0 <__vector_24+0xf0>
    76f6:	90 f4       	brcc	.+36     	; 0x771c <__vector_24+0x5c>
    76f8:	80 31       	cpi	r24, 0x10	; 16
    76fa:	09 f4       	brne	.+2      	; 0x76fe <__vector_24+0x3e>
    76fc:	56 c0       	rjmp	.+172    	; 0x77aa <__vector_24+0xea>
    76fe:	38 f4       	brcc	.+14     	; 0x770e <__vector_24+0x4e>
    7700:	88 23       	and	r24, r24
    7702:	09 f4       	brne	.+2      	; 0x7706 <__vector_24+0x46>
    7704:	f5 c0       	rjmp	.+490    	; 0x78f0 <__vector_24+0x230>
    7706:	88 30       	cpi	r24, 0x08	; 8
    7708:	09 f4       	brne	.+2      	; 0x770c <__vector_24+0x4c>
    770a:	4f c0       	rjmp	.+158    	; 0x77aa <__vector_24+0xea>
    770c:	f5 c0       	rjmp	.+490    	; 0x78f8 <__vector_24+0x238>
    770e:	88 31       	cpi	r24, 0x18	; 24
    7710:	09 f4       	brne	.+2      	; 0x7714 <__vector_24+0x54>
    7712:	4e c0       	rjmp	.+156    	; 0x77b0 <__vector_24+0xf0>
    7714:	80 32       	cpi	r24, 0x20	; 32
    7716:	09 f4       	brne	.+2      	; 0x771a <__vector_24+0x5a>
    7718:	5f c0       	rjmp	.+190    	; 0x77d8 <__vector_24+0x118>
    771a:	ee c0       	rjmp	.+476    	; 0x78f8 <__vector_24+0x238>
    771c:	80 34       	cpi	r24, 0x40	; 64
    771e:	09 f4       	brne	.+2      	; 0x7722 <__vector_24+0x62>
    7720:	6a c0       	rjmp	.+212    	; 0x77f6 <__vector_24+0x136>
    7722:	58 f4       	brcc	.+22     	; 0x773a <__vector_24+0x7a>
    7724:	80 33       	cpi	r24, 0x30	; 48
    7726:	09 f4       	brne	.+2      	; 0x772a <__vector_24+0x6a>
    7728:	57 c0       	rjmp	.+174    	; 0x77d8 <__vector_24+0x118>
    772a:	88 33       	cpi	r24, 0x38	; 56
    772c:	09 f0       	breq	.+2      	; 0x7730 <__vector_24+0x70>
    772e:	e4 c0       	rjmp	.+456    	; 0x78f8 <__vector_24+0x238>
    case TW_MT_DATA_NACK: // data sent, nack received
      twi_error = TW_MT_DATA_NACK;
      twi_stop();
      break;
    case TW_MT_ARB_LOST: // lost bus arbitration
      twi_error = TW_MT_ARB_LOST;
    7730:	80 93 6a 03 	sts	0x036A, r24	; 0x80036a <twi_error>
      twi_releaseBus();
    7734:	0e 94 5a 3b 	call	0x76b4	; 0x76b4 <twi_releaseBus>
      break;
    7738:	df c0       	rjmp	.+446    	; 0x78f8 <__vector_24+0x238>
  twi_state = TWI_READY;
}

ISR(TWI_vect)
{
  switch(TW_STATUS){
    773a:	80 35       	cpi	r24, 0x50	; 80
    773c:	09 f4       	brne	.+2      	; 0x7740 <__vector_24+0x80>
    773e:	4f c0       	rjmp	.+158    	; 0x77de <__vector_24+0x11e>
    7740:	88 35       	cpi	r24, 0x58	; 88
    7742:	09 f4       	brne	.+2      	; 0x7746 <__vector_24+0x86>
    7744:	5d c0       	rjmp	.+186    	; 0x7800 <__vector_24+0x140>
    7746:	88 34       	cpi	r24, 0x48	; 72
    7748:	09 f0       	breq	.+2      	; 0x774c <__vector_24+0x8c>
    774a:	d6 c0       	rjmp	.+428    	; 0x78f8 <__vector_24+0x238>
    774c:	d3 c0       	rjmp	.+422    	; 0x78f4 <__vector_24+0x234>
    774e:	88 39       	cpi	r24, 0x98	; 152
    7750:	09 f4       	brne	.+2      	; 0x7754 <__vector_24+0x94>
    7752:	c4 c0       	rjmp	.+392    	; 0x78dc <__vector_24+0x21c>
    7754:	a8 f4       	brcc	.+42     	; 0x7780 <__vector_24+0xc0>
    7756:	88 37       	cpi	r24, 0x78	; 120
    7758:	09 f4       	brne	.+2      	; 0x775c <__vector_24+0x9c>
    775a:	67 c0       	rjmp	.+206    	; 0x782a <__vector_24+0x16a>
    775c:	38 f4       	brcc	.+14     	; 0x776c <__vector_24+0xac>
    775e:	88 36       	cpi	r24, 0x68	; 104
    7760:	09 f4       	brne	.+2      	; 0x7764 <__vector_24+0xa4>
    7762:	63 c0       	rjmp	.+198    	; 0x782a <__vector_24+0x16a>
    7764:	80 37       	cpi	r24, 0x70	; 112
    7766:	09 f4       	brne	.+2      	; 0x776a <__vector_24+0xaa>
    7768:	60 c0       	rjmp	.+192    	; 0x782a <__vector_24+0x16a>
    776a:	c6 c0       	rjmp	.+396    	; 0x78f8 <__vector_24+0x238>
    776c:	88 38       	cpi	r24, 0x88	; 136
    776e:	09 f4       	brne	.+2      	; 0x7772 <__vector_24+0xb2>
    7770:	b5 c0       	rjmp	.+362    	; 0x78dc <__vector_24+0x21c>
    7772:	80 39       	cpi	r24, 0x90	; 144
    7774:	09 f4       	brne	.+2      	; 0x7778 <__vector_24+0xb8>
    7776:	5f c0       	rjmp	.+190    	; 0x7836 <__vector_24+0x176>
    7778:	80 38       	cpi	r24, 0x80	; 128
    777a:	09 f0       	breq	.+2      	; 0x777e <__vector_24+0xbe>
    777c:	bd c0       	rjmp	.+378    	; 0x78f8 <__vector_24+0x238>
    777e:	5b c0       	rjmp	.+182    	; 0x7836 <__vector_24+0x176>
    7780:	80 3b       	cpi	r24, 0xB0	; 176
    7782:	09 f4       	brne	.+2      	; 0x7786 <__vector_24+0xc6>
    7784:	83 c0       	rjmp	.+262    	; 0x788c <__vector_24+0x1cc>
    7786:	38 f4       	brcc	.+14     	; 0x7796 <__vector_24+0xd6>
    7788:	80 3a       	cpi	r24, 0xA0	; 160
    778a:	09 f4       	brne	.+2      	; 0x778e <__vector_24+0xce>
    778c:	66 c0       	rjmp	.+204    	; 0x785a <__vector_24+0x19a>
    778e:	88 3a       	cpi	r24, 0xA8	; 168
    7790:	09 f4       	brne	.+2      	; 0x7794 <__vector_24+0xd4>
    7792:	7c c0       	rjmp	.+248    	; 0x788c <__vector_24+0x1cc>
    7794:	b1 c0       	rjmp	.+354    	; 0x78f8 <__vector_24+0x238>
    7796:	80 3c       	cpi	r24, 0xC0	; 192
    7798:	09 f4       	brne	.+2      	; 0x779c <__vector_24+0xdc>
    779a:	a4 c0       	rjmp	.+328    	; 0x78e4 <__vector_24+0x224>
    779c:	88 3c       	cpi	r24, 0xC8	; 200
    779e:	09 f4       	brne	.+2      	; 0x77a2 <__vector_24+0xe2>
    77a0:	a1 c0       	rjmp	.+322    	; 0x78e4 <__vector_24+0x224>
    77a2:	88 3b       	cpi	r24, 0xB8	; 184
    77a4:	09 f4       	brne	.+2      	; 0x77a8 <__vector_24+0xe8>
    77a6:	87 c0       	rjmp	.+270    	; 0x78b6 <__vector_24+0x1f6>
    77a8:	a7 c0       	rjmp	.+334    	; 0x78f8 <__vector_24+0x238>
    // All Master
    case TW_START:     // sent start condition
    case TW_REP_START: // sent repeated start condition
      // copy device address and r/w bit to output register and ack
      TWDR = twi_slarw;
    77aa:	80 91 d6 03 	lds	r24, 0x03D6	; 0x8003d6 <twi_slarw>
    77ae:	10 c0       	rjmp	.+32     	; 0x77d0 <__vector_24+0x110>

    // Master Transmitter
    case TW_MT_SLA_ACK:  // slave receiver acked address
    case TW_MT_DATA_ACK: // slave receiver acked data
      // if there is data to send, send it, otherwise stop 
      if(twi_masterBufferIndex < twi_masterBufferLength){
    77b0:	90 91 af 03 	lds	r25, 0x03AF	; 0x8003af <twi_masterBufferIndex>
    77b4:	80 91 ae 03 	lds	r24, 0x03AE	; 0x8003ae <twi_masterBufferLength>
    77b8:	98 17       	cp	r25, r24
    77ba:	70 f5       	brcc	.+92     	; 0x7818 <__vector_24+0x158>
        // copy data to output register and ack
        TWDR = twi_masterBuffer[twi_masterBufferIndex++];
    77bc:	e0 91 af 03 	lds	r30, 0x03AF	; 0x8003af <twi_masterBufferIndex>
    77c0:	81 e0       	ldi	r24, 0x01	; 1
    77c2:	8e 0f       	add	r24, r30
    77c4:	80 93 af 03 	sts	0x03AF, r24	; 0x8003af <twi_masterBufferIndex>
    77c8:	f0 e0       	ldi	r31, 0x00	; 0
    77ca:	e0 55       	subi	r30, 0x50	; 80
    77cc:	fc 4f       	sbci	r31, 0xFC	; 252
    77ce:	80 81       	ld	r24, Z
    77d0:	80 93 bb 00 	sts	0x00BB, r24	; 0x8000bb <__TEXT_REGION_LENGTH__+0x7e00bb>
 */
void twi_reply(uint8_t ack)
{
  // transmit master read ready signal, with or without ack
  if(ack){
    TWCR = _BV(TWEN) | _BV(TWIE) | _BV(TWINT) | _BV(TWEA);
    77d4:	85 ec       	ldi	r24, 0xC5	; 197
    77d6:	83 c0       	rjmp	.+262    	; 0x78de <__vector_24+0x21e>
    case TW_MT_SLA_NACK:  // address sent, nack received
      twi_error = TW_MT_SLA_NACK;
      twi_stop();
      break;
    case TW_MT_DATA_NACK: // data sent, nack received
      twi_error = TW_MT_DATA_NACK;
    77d8:	80 93 6a 03 	sts	0x036A, r24	; 0x80036a <twi_error>
    77dc:	8b c0       	rjmp	.+278    	; 0x78f4 <__vector_24+0x234>
      break;

    // Master Receiver
    case TW_MR_DATA_ACK: // data received, ack sent
      // put byte into buffer
      twi_masterBuffer[twi_masterBufferIndex++] = TWDR;
    77de:	e0 91 af 03 	lds	r30, 0x03AF	; 0x8003af <twi_masterBufferIndex>
    77e2:	81 e0       	ldi	r24, 0x01	; 1
    77e4:	8e 0f       	add	r24, r30
    77e6:	80 93 af 03 	sts	0x03AF, r24	; 0x8003af <twi_masterBufferIndex>
    77ea:	80 91 bb 00 	lds	r24, 0x00BB	; 0x8000bb <__TEXT_REGION_LENGTH__+0x7e00bb>
    77ee:	f0 e0       	ldi	r31, 0x00	; 0
    77f0:	e0 55       	subi	r30, 0x50	; 80
    77f2:	fc 4f       	sbci	r31, 0xFC	; 252
    77f4:	80 83       	st	Z, r24
    case TW_MR_SLA_ACK:  // address sent, ack received
      // ack if more bytes are expected, otherwise nack
      if(twi_masterBufferIndex < twi_masterBufferLength){
    77f6:	90 91 af 03 	lds	r25, 0x03AF	; 0x8003af <twi_masterBufferIndex>
    77fa:	80 91 ae 03 	lds	r24, 0x03AE	; 0x8003ae <twi_masterBufferLength>
    77fe:	6b c0       	rjmp	.+214    	; 0x78d6 <__vector_24+0x216>
        twi_reply(0);
      }
      break;
    case TW_MR_DATA_NACK: // data received, nack sent
      // put final byte into buffer
      twi_masterBuffer[twi_masterBufferIndex++] = TWDR;
    7800:	e0 91 af 03 	lds	r30, 0x03AF	; 0x8003af <twi_masterBufferIndex>
    7804:	81 e0       	ldi	r24, 0x01	; 1
    7806:	8e 0f       	add	r24, r30
    7808:	80 93 af 03 	sts	0x03AF, r24	; 0x8003af <twi_masterBufferIndex>
    780c:	80 91 bb 00 	lds	r24, 0x00BB	; 0x8000bb <__TEXT_REGION_LENGTH__+0x7e00bb>
    7810:	f0 e0       	ldi	r31, 0x00	; 0
    7812:	e0 55       	subi	r30, 0x50	; 80
    7814:	fc 4f       	sbci	r31, 0xFC	; 252
    7816:	80 83       	st	Z, r24
	if (twi_sendStop)
    7818:	80 91 d5 03 	lds	r24, 0x03D5	; 0x8003d5 <twi_sendStop>
    781c:	81 11       	cpse	r24, r1
    781e:	6a c0       	rjmp	.+212    	; 0x78f4 <__vector_24+0x234>
          twi_stop();
	else {
	  twi_inRepStart = true;	// we're gonna send the START
    7820:	81 e0       	ldi	r24, 0x01	; 1
    7822:	80 93 d4 03 	sts	0x03D4, r24	; 0x8003d4 <twi_inRepStart>
	  // don't enable the interrupt. We'll generate the start, but we 
	  // avoid handling the interrupt until we're in the next transaction,
	  // at the point where we would normally issue the start.
	  TWCR = _BV(TWINT) | _BV(TWSTA)| _BV(TWEN) ;
    7826:	84 ea       	ldi	r24, 0xA4	; 164
    7828:	5e c0       	rjmp	.+188    	; 0x78e6 <__vector_24+0x226>
    case TW_SR_SLA_ACK:   // addressed, returned ack
    case TW_SR_GCALL_ACK: // addressed generally, returned ack
    case TW_SR_ARB_LOST_SLA_ACK:   // lost arbitration, returned ack
    case TW_SR_ARB_LOST_GCALL_ACK: // lost arbitration, returned ack
      // enter slave receiver mode
      twi_state = TWI_SRX;
    782a:	83 e0       	ldi	r24, 0x03	; 3
    782c:	80 93 d7 03 	sts	0x03D7, r24	; 0x8003d7 <twi_state>
      // indicate that rx buffer can be overwritten and ack
      twi_rxBufferIndex = 0;
    7830:	10 92 6b 03 	sts	0x036B, r1	; 0x80036b <twi_rxBufferIndex>
    7834:	cf cf       	rjmp	.-98     	; 0x77d4 <__vector_24+0x114>
      twi_reply(1);
      break;
    case TW_SR_DATA_ACK:       // data received, returned ack
    case TW_SR_GCALL_DATA_ACK: // data received generally, returned ack
      // if there is still room in the rx buffer
      if(twi_rxBufferIndex < TWI_BUFFER_LENGTH){
    7836:	80 91 6b 03 	lds	r24, 0x036B	; 0x80036b <twi_rxBufferIndex>
    783a:	80 32       	cpi	r24, 0x20	; 32
    783c:	08 f0       	brcs	.+2      	; 0x7840 <__vector_24+0x180>
    783e:	4e c0       	rjmp	.+156    	; 0x78dc <__vector_24+0x21c>
        // put byte in buffer and ack
        twi_rxBuffer[twi_rxBufferIndex++] = TWDR;
    7840:	e0 91 6b 03 	lds	r30, 0x036B	; 0x80036b <twi_rxBufferIndex>
    7844:	81 e0       	ldi	r24, 0x01	; 1
    7846:	8e 0f       	add	r24, r30
    7848:	80 93 6b 03 	sts	0x036B, r24	; 0x80036b <twi_rxBufferIndex>
    784c:	80 91 bb 00 	lds	r24, 0x00BB	; 0x8000bb <__TEXT_REGION_LENGTH__+0x7e00bb>
    7850:	f0 e0       	ldi	r31, 0x00	; 0
    7852:	e4 59       	subi	r30, 0x94	; 148
    7854:	fc 4f       	sbci	r31, 0xFC	; 252
    7856:	80 83       	st	Z, r24
    7858:	bd cf       	rjmp	.-134    	; 0x77d4 <__vector_24+0x114>
        twi_reply(0);
      }
      break;
    case TW_SR_STOP: // stop or repeated start condition received
      // ack future responses and leave slave receiver state
      twi_releaseBus();
    785a:	0e 94 5a 3b 	call	0x76b4	; 0x76b4 <twi_releaseBus>
      // put a null char after data if there's room
      if(twi_rxBufferIndex < TWI_BUFFER_LENGTH){
    785e:	80 91 6b 03 	lds	r24, 0x036B	; 0x80036b <twi_rxBufferIndex>
    7862:	80 32       	cpi	r24, 0x20	; 32
    7864:	30 f4       	brcc	.+12     	; 0x7872 <__vector_24+0x1b2>
        twi_rxBuffer[twi_rxBufferIndex] = '\0';
    7866:	e0 91 6b 03 	lds	r30, 0x036B	; 0x80036b <twi_rxBufferIndex>
    786a:	f0 e0       	ldi	r31, 0x00	; 0
    786c:	e4 59       	subi	r30, 0x94	; 148
    786e:	fc 4f       	sbci	r31, 0xFC	; 252
    7870:	10 82       	st	Z, r1
      }
      // callback to user defined callback
      twi_onSlaveReceive(twi_rxBuffer, twi_rxBufferIndex);
    7872:	60 91 6b 03 	lds	r22, 0x036B	; 0x80036b <twi_rxBufferIndex>
    7876:	70 e0       	ldi	r23, 0x00	; 0
    7878:	e0 91 d0 03 	lds	r30, 0x03D0	; 0x8003d0 <twi_onSlaveReceive>
    787c:	f0 91 d1 03 	lds	r31, 0x03D1	; 0x8003d1 <twi_onSlaveReceive+0x1>
    7880:	8c e6       	ldi	r24, 0x6C	; 108
    7882:	93 e0       	ldi	r25, 0x03	; 3
    7884:	09 95       	icall
      // since we submit rx buffer to "wire" library, we can reset it
      twi_rxBufferIndex = 0;
    7886:	10 92 6b 03 	sts	0x036B, r1	; 0x80036b <twi_rxBufferIndex>
      break;
    788a:	36 c0       	rjmp	.+108    	; 0x78f8 <__vector_24+0x238>
    
    // Slave Transmitter
    case TW_ST_SLA_ACK:          // addressed, returned ack
    case TW_ST_ARB_LOST_SLA_ACK: // arbitration lost, returned ack
      // enter slave transmitter mode
      twi_state = TWI_STX;
    788c:	84 e0       	ldi	r24, 0x04	; 4
    788e:	80 93 d7 03 	sts	0x03D7, r24	; 0x8003d7 <twi_state>
      // ready the tx buffer index for iteration
      twi_txBufferIndex = 0;
    7892:	10 92 8d 03 	sts	0x038D, r1	; 0x80038d <twi_txBufferIndex>
      // set tx buffer length to be zero, to verify if user changes it
      twi_txBufferLength = 0;
    7896:	10 92 8c 03 	sts	0x038C, r1	; 0x80038c <twi_txBufferLength>
      // request for txBuffer to be filled and length to be set
      // note: user must call twi_transmit(bytes, length) to do this
      twi_onSlaveTransmit();
    789a:	e0 91 d2 03 	lds	r30, 0x03D2	; 0x8003d2 <twi_onSlaveTransmit>
    789e:	f0 91 d3 03 	lds	r31, 0x03D3	; 0x8003d3 <twi_onSlaveTransmit+0x1>
    78a2:	09 95       	icall
      // if they didn't change buffer & length, initialize it
      if(0 == twi_txBufferLength){
    78a4:	80 91 8c 03 	lds	r24, 0x038C	; 0x80038c <twi_txBufferLength>
    78a8:	81 11       	cpse	r24, r1
    78aa:	05 c0       	rjmp	.+10     	; 0x78b6 <__vector_24+0x1f6>
        twi_txBufferLength = 1;
    78ac:	81 e0       	ldi	r24, 0x01	; 1
    78ae:	80 93 8c 03 	sts	0x038C, r24	; 0x80038c <twi_txBufferLength>
        twi_txBuffer[0] = 0x00;
    78b2:	10 92 8e 03 	sts	0x038E, r1	; 0x80038e <twi_txBuffer>
      }
      // transmit first byte from buffer, fall
    case TW_ST_DATA_ACK: // byte sent, ack returned
      // copy data to output register
      TWDR = twi_txBuffer[twi_txBufferIndex++];
    78b6:	e0 91 8d 03 	lds	r30, 0x038D	; 0x80038d <twi_txBufferIndex>
    78ba:	81 e0       	ldi	r24, 0x01	; 1
    78bc:	8e 0f       	add	r24, r30
    78be:	80 93 8d 03 	sts	0x038D, r24	; 0x80038d <twi_txBufferIndex>
    78c2:	f0 e0       	ldi	r31, 0x00	; 0
    78c4:	e2 57       	subi	r30, 0x72	; 114
    78c6:	fc 4f       	sbci	r31, 0xFC	; 252
    78c8:	80 81       	ld	r24, Z
    78ca:	80 93 bb 00 	sts	0x00BB, r24	; 0x8000bb <__TEXT_REGION_LENGTH__+0x7e00bb>
      // if there is more to send, ack, otherwise nack
      if(twi_txBufferIndex < twi_txBufferLength){
    78ce:	90 91 8d 03 	lds	r25, 0x038D	; 0x80038d <twi_txBufferIndex>
    78d2:	80 91 8c 03 	lds	r24, 0x038C	; 0x80038c <twi_txBufferLength>
    78d6:	98 17       	cp	r25, r24
    78d8:	08 f4       	brcc	.+2      	; 0x78dc <__vector_24+0x21c>
    78da:	7c cf       	rjmp	.-264    	; 0x77d4 <__vector_24+0x114>
{
  // transmit master read ready signal, with or without ack
  if(ack){
    TWCR = _BV(TWEN) | _BV(TWIE) | _BV(TWINT) | _BV(TWEA);
  }else{
	  TWCR = _BV(TWEN) | _BV(TWIE) | _BV(TWINT);
    78dc:	85 e8       	ldi	r24, 0x85	; 133
    78de:	80 93 bc 00 	sts	0x00BC, r24	; 0x8000bc <__TEXT_REGION_LENGTH__+0x7e00bc>
    78e2:	0a c0       	rjmp	.+20     	; 0x78f8 <__vector_24+0x238>
 */
void twi_reply(uint8_t ack)
{
  // transmit master read ready signal, with or without ack
  if(ack){
    TWCR = _BV(TWEN) | _BV(TWIE) | _BV(TWINT) | _BV(TWEA);
    78e4:	85 ec       	ldi	r24, 0xC5	; 197
    78e6:	80 93 bc 00 	sts	0x00BC, r24	; 0x8000bc <__TEXT_REGION_LENGTH__+0x7e00bc>
    case TW_ST_DATA_NACK: // received nack, we are done 
    case TW_ST_LAST_DATA: // received ack, but we are done already!
      // ack future responses
      twi_reply(1);
      // leave slave receiver state
      twi_state = TWI_READY;
    78ea:	10 92 d7 03 	sts	0x03D7, r1	; 0x8003d7 <twi_state>
      break;
    78ee:	04 c0       	rjmp	.+8      	; 0x78f8 <__vector_24+0x238>

    // All
    case TW_NO_INFO:   // no state information
      break;
    case TW_BUS_ERROR: // bus error, illegal stop/start
      twi_error = TW_BUS_ERROR;
    78f0:	10 92 6a 03 	sts	0x036A, r1	; 0x80036a <twi_error>
      twi_stop();
    78f4:	0e 94 50 3b 	call	0x76a0	; 0x76a0 <twi_stop>
      break;
  }
}
    78f8:	ff 91       	pop	r31
    78fa:	ef 91       	pop	r30
    78fc:	bf 91       	pop	r27
    78fe:	af 91       	pop	r26
    7900:	9f 91       	pop	r25
    7902:	8f 91       	pop	r24
    7904:	7f 91       	pop	r23
    7906:	6f 91       	pop	r22
    7908:	5f 91       	pop	r21
    790a:	4f 91       	pop	r20
    790c:	3f 91       	pop	r19
    790e:	2f 91       	pop	r18
    7910:	0f 90       	pop	r0
    7912:	0f be       	out	0x3f, r0	; 63
    7914:	0f 90       	pop	r0
    7916:	1f 90       	pop	r1
    7918:	18 95       	reti

0000791a <__tablejump2__>:
    791a:	ee 0f       	add	r30, r30
    791c:	ff 1f       	adc	r31, r31
    791e:	05 90       	lpm	r0, Z+
    7920:	f4 91       	lpm	r31, Z
    7922:	e0 2d       	mov	r30, r0
    7924:	09 94       	ijmp

00007926 <_exit>:
    7926:	f8 94       	cli

00007928 <__stop_program>:
    7928:	ff cf       	rjmp	.-2      	; 0x7928 <__stop_program>
